ccopy_reg
_reconstructor
p0
(cneat.genome
FFGenome
p1
c__builtin__
object
p2
Ntp3
Rp4
(dp5
S'species_id'
p6
I11
sS'conn_genes'
p7
(dp8
(I42
I100
tp9
g0
(cneat.genes
ConnectionGene
p10
g2
Ntp11
Rp12
(dp13
S'weight'
p14
F-1.6805656359070922
sS'enabled'
p15
I00
sS'out_node_id'
p16
I100
sS'in_node_id'
p17
I42
sbs(I128
I89
tp18
g0
(g10
g2
Ntp19
Rp20
(dp21
g14
F6.387507969394415
sg15
I01
sg16
I89
sg17
I128
sbs(I7
I126
tp22
g0
(g10
g2
Ntp23
Rp24
(dp25
g14
F1.0
sg15
I01
sg16
I126
sg17
I7
sbs(I25
I129
tp26
g0
(g10
g2
Ntp27
Rp28
(dp29
g14
F3.76912689816516
sg15
I00
sg16
I129
sg17
I25
sbs(I126
I128
tp30
g0
(g10
g2
Ntp31
Rp32
(dp33
g14
F3.7131778241275177
sg15
I01
sg16
I128
sg17
I126
sbs(I60
I126
tp34
g0
(g10
g2
Ntp35
Rp36
(dp37
g14
F1.6004994076489303
sg15
I00
sg16
I126
sg17
I60
sbs(I58
I90
tp38
g0
(g10
g2
Ntp39
Rp40
(dp41
g14
F-0.6708199513785916
sg15
I01
sg16
I90
sg17
I58
sbs(I44
I115
tp42
g0
(g10
g2
Ntp43
Rp44
(dp45
g14
F7.533680149340264
sg15
I00
sg16
I115
sg17
I44
sbs(I34
I123
tp46
g0
(g10
g2
Ntp47
Rp48
(dp49
g14
F-0.9579451735990551
sg15
I00
sg16
I123
sg17
I34
sbs(I6
I103
tp50
g0
(g10
g2
Ntp51
Rp52
(dp53
g14
F5.050616326791308
sg15
I00
sg16
I103
sg17
I6
sbs(I9
I65
tp54
g0
(g10
g2
Ntp55
Rp56
(dp57
g14
F5.786176730632378
sg15
I00
sg16
I65
sg17
I9
sbs(I129
I79
tp58
g0
(g10
g2
Ntp59
Rp60
(dp61
g14
F-10.195298072209525
sg15
I00
sg16
I79
sg17
I129
sbs(I2
I119
tp62
g0
(g10
g2
Ntp63
Rp64
(dp65
g14
F4.722989485783915
sg15
I00
sg16
I119
sg17
I2
sbs(I25
I127
tp66
g0
(g10
g2
Ntp67
Rp68
(dp69
g14
F1.0
sg15
I01
sg16
I127
sg17
I25
sbs(I60
I79
tp70
g0
(g10
g2
Ntp71
Rp72
(dp73
g14
F-2.1792919025402293
sg15
I00
sg16
I79
sg17
I60
sbs(I34
I99
tp74
g0
(g10
g2
Ntp75
Rp76
(dp77
g14
F-1.3050682038534847
sg15
I00
sg16
I99
sg17
I34
sbs(I128
I96
tp78
g0
(g10
g2
Ntp79
Rp80
(dp81
g14
F4.300682158714391
sg15
I00
sg16
I96
sg17
I128
sbs(I7
I128
tp82
g0
(g10
g2
Ntp83
Rp84
(dp85
g14
F3.8057743738927914
sg15
I00
sg16
I128
sg17
I7
sbs(I41
I65
tp86
g0
(g10
g2
Ntp87
Rp88
(dp89
g14
F3.5953334582223384
sg15
I00
sg16
I65
sg17
I41
sbs(I27
I89
tp90
g0
(g10
g2
Ntp91
Rp92
(dp93
g14
F5.8258094345190115
sg15
I00
sg16
I89
sg17
I27
sbs(I45
I103
tp94
g0
(g10
g2
Ntp95
Rp96
(dp97
g14
F-7.208285292158444
sg15
I00
sg16
I103
sg17
I45
sbs(I58
I89
tp98
g0
(g10
g2
Ntp99
Rp100
(dp101
g14
F4.626258270954262
sg15
I01
sg16
I89
sg17
I58
sbs(I127
I129
tp102
g0
(g10
g2
Ntp103
Rp104
(dp105
g14
F4.3979092257785295
sg15
I01
sg16
I129
sg17
I127
sbssS'parent1_id'
p106
I8498
sS'num_inputs'
p107
I64
sS'node_genes'
p108
(dp109
I0
g0
(cneat.genes
NodeGene
p110
g2
Ntp111
Rp112
(dp113
S'activation_type'
p114
S'sigmoid'
p115
sS'bias'
p116
F0.0
sS'type'
p117
S'INPUT'
p118
sS'ID'
p119
I0
sS'response'
p120
F4.924273
sbsI1
g0
(g110
g2
Ntp121
Rp122
(dp123
g114
g115
sg116
F0.0
sg117
g118
sg119
I1
sg120
F4.924273
sbsI2
g0
(g110
g2
Ntp124
Rp125
(dp126
g114
g115
sg116
F0.0
sg117
g118
sg119
I2
sg120
F4.924273
sbsI3
g0
(g110
g2
Ntp127
Rp128
(dp129
g114
g115
sg116
F0.0
sg117
g118
sg119
I3
sg120
F4.924273
sbsI4
g0
(g110
g2
Ntp130
Rp131
(dp132
g114
g115
sg116
F0.0
sg117
g118
sg119
I4
sg120
F4.924273
sbsI5
g0
(g110
g2
Ntp133
Rp134
(dp135
g114
g115
sg116
F0.0
sg117
g118
sg119
I5
sg120
F4.924273
sbsI6
g0
(g110
g2
Ntp136
Rp137
(dp138
g114
g115
sg116
F0.0
sg117
g118
sg119
I6
sg120
F4.924273
sbsI7
g0
(g110
g2
Ntp139
Rp140
(dp141
g114
g115
sg116
F0.0
sg117
g118
sg119
I7
sg120
F4.924273
sbsI8
g0
(g110
g2
Ntp142
Rp143
(dp144
g114
g115
sg116
F0.0
sg117
g118
sg119
I8
sg120
F4.924273
sbsI9
g0
(g110
g2
Ntp145
Rp146
(dp147
g114
g115
sg116
F0.0
sg117
g118
sg119
I9
sg120
F4.924273
sbsI10
g0
(g110
g2
Ntp148
Rp149
(dp150
g114
g115
sg116
F0.0
sg117
g118
sg119
I10
sg120
F4.924273
sbsI11
g0
(g110
g2
Ntp151
Rp152
(dp153
g114
g115
sg116
F0.0
sg117
g118
sg119
I11
sg120
F4.924273
sbsI12
g0
(g110
g2
Ntp154
Rp155
(dp156
g114
g115
sg116
F0.0
sg117
g118
sg119
I12
sg120
F4.924273
sbsI13
g0
(g110
g2
Ntp157
Rp158
(dp159
g114
g115
sg116
F0.0
sg117
g118
sg119
I13
sg120
F4.924273
sbsI14
g0
(g110
g2
Ntp160
Rp161
(dp162
g114
g115
sg116
F0.0
sg117
g118
sg119
I14
sg120
F4.924273
sbsI15
g0
(g110
g2
Ntp163
Rp164
(dp165
g114
g115
sg116
F0.0
sg117
g118
sg119
I15
sg120
F4.924273
sbsI16
g0
(g110
g2
Ntp166
Rp167
(dp168
g114
g115
sg116
F0.0
sg117
g118
sg119
I16
sg120
F4.924273
sbsI17
g0
(g110
g2
Ntp169
Rp170
(dp171
g114
g115
sg116
F0.0
sg117
g118
sg119
I17
sg120
F4.924273
sbsI18
g0
(g110
g2
Ntp172
Rp173
(dp174
g114
g115
sg116
F0.0
sg117
g118
sg119
I18
sg120
F4.924273
sbsI19
g0
(g110
g2
Ntp175
Rp176
(dp177
g114
g115
sg116
F0.0
sg117
g118
sg119
I19
sg120
F4.924273
sbsI20
g0
(g110
g2
Ntp178
Rp179
(dp180
g114
g115
sg116
F0.0
sg117
g118
sg119
I20
sg120
F4.924273
sbsI21
g0
(g110
g2
Ntp181
Rp182
(dp183
g114
g115
sg116
F0.0
sg117
g118
sg119
I21
sg120
F4.924273
sbsI22
g0
(g110
g2
Ntp184
Rp185
(dp186
g114
g115
sg116
F0.0
sg117
g118
sg119
I22
sg120
F4.924273
sbsI23
g0
(g110
g2
Ntp187
Rp188
(dp189
g114
g115
sg116
F0.0
sg117
g118
sg119
I23
sg120
F4.924273
sbsI24
g0
(g110
g2
Ntp190
Rp191
(dp192
g114
g115
sg116
F0.0
sg117
g118
sg119
I24
sg120
F4.924273
sbsI25
g0
(g110
g2
Ntp193
Rp194
(dp195
g114
g115
sg116
F0.0
sg117
g118
sg119
I25
sg120
F4.924273
sbsI26
g0
(g110
g2
Ntp196
Rp197
(dp198
g114
g115
sg116
F0.0
sg117
g118
sg119
I26
sg120
F4.924273
sbsI27
g0
(g110
g2
Ntp199
Rp200
(dp201
g114
g115
sg116
F0.0
sg117
g118
sg119
I27
sg120
F4.924273
sbsI28
g0
(g110
g2
Ntp202
Rp203
(dp204
g114
g115
sg116
F0.0
sg117
g118
sg119
I28
sg120
F4.924273
sbsI29
g0
(g110
g2
Ntp205
Rp206
(dp207
g114
g115
sg116
F0.0
sg117
g118
sg119
I29
sg120
F4.924273
sbsI30
g0
(g110
g2
Ntp208
Rp209
(dp210
g114
g115
sg116
F0.0
sg117
g118
sg119
I30
sg120
F4.924273
sbsI31
g0
(g110
g2
Ntp211
Rp212
(dp213
g114
g115
sg116
F0.0
sg117
g118
sg119
I31
sg120
F4.924273
sbsI32
g0
(g110
g2
Ntp214
Rp215
(dp216
g114
g115
sg116
F0.0
sg117
g118
sg119
I32
sg120
F4.924273
sbsI33
g0
(g110
g2
Ntp217
Rp218
(dp219
g114
g115
sg116
F0.0
sg117
g118
sg119
I33
sg120
F4.924273
sbsI34
g0
(g110
g2
Ntp220
Rp221
(dp222
g114
g115
sg116
F0.0
sg117
g118
sg119
I34
sg120
F4.924273
sbsI35
g0
(g110
g2
Ntp223
Rp224
(dp225
g114
g115
sg116
F0.0
sg117
g118
sg119
I35
sg120
F4.924273
sbsI36
g0
(g110
g2
Ntp226
Rp227
(dp228
g114
g115
sg116
F0.0
sg117
g118
sg119
I36
sg120
F4.924273
sbsI37
g0
(g110
g2
Ntp229
Rp230
(dp231
g114
g115
sg116
F0.0
sg117
g118
sg119
I37
sg120
F4.924273
sbsI38
g0
(g110
g2
Ntp232
Rp233
(dp234
g114
g115
sg116
F0.0
sg117
g118
sg119
I38
sg120
F4.924273
sbsI39
g0
(g110
g2
Ntp235
Rp236
(dp237
g114
g115
sg116
F0.0
sg117
g118
sg119
I39
sg120
F4.924273
sbsI40
g0
(g110
g2
Ntp238
Rp239
(dp240
g114
g115
sg116
F0.0
sg117
g118
sg119
I40
sg120
F4.924273
sbsI41
g0
(g110
g2
Ntp241
Rp242
(dp243
g114
g115
sg116
F0.0
sg117
g118
sg119
I41
sg120
F4.924273
sbsI42
g0
(g110
g2
Ntp244
Rp245
(dp246
g114
g115
sg116
F0.0
sg117
g118
sg119
I42
sg120
F4.924273
sbsI43
g0
(g110
g2
Ntp247
Rp248
(dp249
g114
g115
sg116
F0.0
sg117
g118
sg119
I43
sg120
F4.924273
sbsI44
g0
(g110
g2
Ntp250
Rp251
(dp252
g114
g115
sg116
F0.0
sg117
g118
sg119
I44
sg120
F4.924273
sbsI45
g0
(g110
g2
Ntp253
Rp254
(dp255
g114
g115
sg116
F0.0
sg117
g118
sg119
I45
sg120
F4.924273
sbsI46
g0
(g110
g2
Ntp256
Rp257
(dp258
g114
g115
sg116
F0.0
sg117
g118
sg119
I46
sg120
F4.924273
sbsI47
g0
(g110
g2
Ntp259
Rp260
(dp261
g114
g115
sg116
F0.0
sg117
g118
sg119
I47
sg120
F4.924273
sbsI48
g0
(g110
g2
Ntp262
Rp263
(dp264
g114
g115
sg116
F0.0
sg117
g118
sg119
I48
sg120
F4.924273
sbsI49
g0
(g110
g2
Ntp265
Rp266
(dp267
g114
g115
sg116
F0.0
sg117
g118
sg119
I49
sg120
F4.924273
sbsI50
g0
(g110
g2
Ntp268
Rp269
(dp270
g114
g115
sg116
F0.0
sg117
g118
sg119
I50
sg120
F4.924273
sbsI51
g0
(g110
g2
Ntp271
Rp272
(dp273
g114
g115
sg116
F0.0
sg117
g118
sg119
I51
sg120
F4.924273
sbsI52
g0
(g110
g2
Ntp274
Rp275
(dp276
g114
g115
sg116
F0.0
sg117
g118
sg119
I52
sg120
F4.924273
sbsI53
g0
(g110
g2
Ntp277
Rp278
(dp279
g114
g115
sg116
F0.0
sg117
g118
sg119
I53
sg120
F4.924273
sbsI54
g0
(g110
g2
Ntp280
Rp281
(dp282
g114
g115
sg116
F0.0
sg117
g118
sg119
I54
sg120
F4.924273
sbsI55
g0
(g110
g2
Ntp283
Rp284
(dp285
g114
g115
sg116
F0.0
sg117
g118
sg119
I55
sg120
F4.924273
sbsI56
g0
(g110
g2
Ntp286
Rp287
(dp288
g114
g115
sg116
F0.0
sg117
g118
sg119
I56
sg120
F4.924273
sbsI57
g0
(g110
g2
Ntp289
Rp290
(dp291
g114
g115
sg116
F0.0
sg117
g118
sg119
I57
sg120
F4.924273
sbsI58
g0
(g110
g2
Ntp292
Rp293
(dp294
g114
g115
sg116
F0.0
sg117
g118
sg119
I58
sg120
F4.924273
sbsI59
g0
(g110
g2
Ntp295
Rp296
(dp297
g114
g115
sg116
F0.0
sg117
g118
sg119
I59
sg120
F4.924273
sbsI60
g0
(g110
g2
Ntp298
Rp299
(dp300
g114
g115
sg116
F0.0
sg117
g118
sg119
I60
sg120
F4.924273
sbsI61
g0
(g110
g2
Ntp301
Rp302
(dp303
g114
g115
sg116
F0.0
sg117
g118
sg119
I61
sg120
F4.924273
sbsI62
g0
(g110
g2
Ntp304
Rp305
(dp306
g114
g115
sg116
F0.0
sg117
g118
sg119
I62
sg120
F4.924273
sbsI63
g0
(g110
g2
Ntp307
Rp308
(dp309
g114
g115
sg116
F0.0
sg117
g118
sg119
I63
sg120
F4.924273
sbsI64
g0
(g110
g2
Ntp310
Rp311
(dp312
g114
S'sigmoid'
p313
sg116
F-4.24394944168991
sg117
S'OUTPUT'
p314
sg119
I64
sg120
F6.193457901103646
sbsI65
g0
(g110
g2
Ntp315
Rp316
(dp317
g114
g313
sg116
F-4.076654586411136
sg117
g314
sg119
I65
sg120
F2.6033939218228515
sbsI66
g0
(g110
g2
Ntp318
Rp319
(dp320
g114
g313
sg116
F0.4108932550634457
sg117
g314
sg119
I66
sg120
F5.477253339245122
sbsI67
g0
(g110
g2
Ntp321
Rp322
(dp323
g114
g313
sg116
F0.9106061826983314
sg117
g314
sg119
I67
sg120
F4.501351411624047
sbsI68
g0
(g110
g2
Ntp324
Rp325
(dp326
g114
g313
sg116
F3.047388026085395
sg117
g314
sg119
I68
sg120
F4.127196346281108
sbsI69
g0
(g110
g2
Ntp327
Rp328
(dp329
g114
g313
sg116
F0.3506552445290162
sg117
g314
sg119
I69
sg120
F7.38241847858018
sbsI70
g0
(g110
g2
Ntp330
Rp331
(dp332
g114
g313
sg116
F3.5725952681142235
sg117
g314
sg119
I70
sg120
F6.7544834078374025
sbsI71
g0
(g110
g2
Ntp333
Rp334
(dp335
g114
g313
sg116
F1.9239278746114976
sg117
g314
sg119
I71
sg120
F6.971383092819522
sbsI72
g0
(g110
g2
Ntp336
Rp337
(dp338
g114
g313
sg116
F2.5193437772166414
sg117
g314
sg119
I72
sg120
F6.09319569331135
sbsI73
g0
(g110
g2
Ntp339
Rp340
(dp341
g114
g313
sg116
F-4.950028147919757
sg117
g314
sg119
I73
sg120
F5.9962029426284245
sbsI74
g0
(g110
g2
Ntp342
Rp343
(dp344
g114
g313
sg116
F2.988681187159667
sg117
g314
sg119
I74
sg120
F4.401765470304302
sbsI75
g0
(g110
g2
Ntp345
Rp346
(dp347
g114
g313
sg116
F6.737748690382819
sg117
g314
sg119
I75
sg120
F5.016884114157007
sbsI76
g0
(g110
g2
Ntp348
Rp349
(dp350
g114
g313
sg116
F-1.5991373834889056
sg117
g314
sg119
I76
sg120
F6.276468353754626
sbsI77
g0
(g110
g2
Ntp351
Rp352
(dp353
g114
g313
sg116
F1.3050151040496025
sg117
g314
sg119
I77
sg120
F6.466021465619473
sbsI78
g0
(g110
g2
Ntp354
Rp355
(dp356
g114
g313
sg116
F1.3713444571342746
sg117
g314
sg119
I78
sg120
F1.2571344122473318
sbsI79
g0
(g110
g2
Ntp357
Rp358
(dp359
g114
g313
sg116
F-0.26716620422800597
sg117
g314
sg119
I79
sg120
F5.648945343087146
sbsI80
g0
(g110
g2
Ntp360
Rp361
(dp362
g114
g313
sg116
F-0.5485627466286497
sg117
g314
sg119
I80
sg120
F0.4410713073504011
sbsI81
g0
(g110
g2
Ntp363
Rp364
(dp365
g114
g313
sg116
F0.0
sg117
g314
sg119
I81
sg120
F4.430838379315671
sbsI82
g0
(g110
g2
Ntp366
Rp367
(dp368
g114
g313
sg116
F4.683279610750763
sg117
g314
sg119
I82
sg120
F7.026683884722258
sbsI83
g0
(g110
g2
Ntp369
Rp370
(dp371
g114
g313
sg116
F3.698095816352148
sg117
g314
sg119
I83
sg120
F3.2628421344721525
sbsI84
g0
(g110
g2
Ntp372
Rp373
(dp374
g114
g313
sg116
F-0.11956117377648182
sg117
g314
sg119
I84
sg120
F-1.0889301673265153
sbsI85
g0
(g110
g2
Ntp375
Rp376
(dp377
g114
g313
sg116
F-4.781352825989027
sg117
g314
sg119
I85
sg120
F3.375866535947528
sbsI86
g0
(g110
g2
Ntp378
Rp379
(dp380
g114
g313
sg116
F-1.2099543511731174
sg117
g314
sg119
I86
sg120
F3.129763629679805
sbsI87
g0
(g110
g2
Ntp381
Rp382
(dp383
g114
g313
sg116
F-1.0414095053998436
sg117
g314
sg119
I87
sg120
F2.737019926518329
sbsI88
g0
(g110
g2
Ntp384
Rp385
(dp386
g114
g313
sg116
F7.537293665070621
sg117
g314
sg119
I88
sg120
F8.680929035178044
sbsI89
g0
(g110
g2
Ntp387
Rp388
(dp389
g114
g313
sg116
F-5.122707549785266
sg117
g314
sg119
I89
sg120
F4.495437948282715
sbsI90
g0
(g110
g2
Ntp390
Rp391
(dp392
g114
g313
sg116
F-1.2215502175890764
sg117
g314
sg119
I90
sg120
F6.549973563199764
sbsI91
g0
(g110
g2
Ntp393
Rp394
(dp395
g114
g313
sg116
F0.7573755012274712
sg117
g314
sg119
I91
sg120
F1.4058072546207252
sbsI92
g0
(g110
g2
Ntp396
Rp397
(dp398
g114
g313
sg116
F1.9972789428920992
sg117
g314
sg119
I92
sg120
F1.9227358919192625
sbsI93
g0
(g110
g2
Ntp399
Rp400
(dp401
g114
g313
sg116
F-1.2024863593749089
sg117
g314
sg119
I93
sg120
F9.583738871940715
sbsI94
g0
(g110
g2
Ntp402
Rp403
(dp404
g114
g313
sg116
F2.540438767457675
sg117
g314
sg119
I94
sg120
F4.235513712483868
sbsI95
g0
(g110
g2
Ntp405
Rp406
(dp407
g114
g313
sg116
F-0.1334743933124256
sg117
g314
sg119
I95
sg120
F5.588954182936375
sbsI96
g0
(g110
g2
Ntp408
Rp409
(dp410
g114
g313
sg116
F3.7725341040047273
sg117
g314
sg119
I96
sg120
F2.247809340708902
sbsI97
g0
(g110
g2
Ntp411
Rp412
(dp413
g114
g313
sg116
F1.4996232631590203
sg117
g314
sg119
I97
sg120
F7.540596867043432
sbsI98
g0
(g110
g2
Ntp414
Rp415
(dp416
g114
g313
sg116
F0.7963786333669588
sg117
g314
sg119
I98
sg120
F4.500786557243422
sbsI99
g0
(g110
g2
Ntp417
Rp418
(dp419
g114
g313
sg116
F-2.8648221791365724
sg117
g314
sg119
I99
sg120
F5.736810832110479
sbsI100
g0
(g110
g2
Ntp420
Rp421
(dp422
g114
g313
sg116
F-3.759925908836287
sg117
g314
sg119
I100
sg120
F8.090188768208941
sbsI101
g0
(g110
g2
Ntp423
Rp424
(dp425
g114
g313
sg116
F-2.1241450689563446
sg117
g314
sg119
I101
sg120
F6.216439399097223
sbsI102
g0
(g110
g2
Ntp426
Rp427
(dp428
g114
g313
sg116
F9.412488914072856
sg117
g314
sg119
I102
sg120
F3.96253160721666
sbsI103
g0
(g110
g2
Ntp429
Rp430
(dp431
g114
g313
sg116
F-0.11316664053185443
sg117
g314
sg119
I103
sg120
F9.17917229679333
sbsI104
g0
(g110
g2
Ntp432
Rp433
(dp434
g114
g313
sg116
F1.2791362994735014
sg117
g314
sg119
I104
sg120
F4.993818241934759
sbsI105
g0
(g110
g2
Ntp435
Rp436
(dp437
g114
g313
sg116
F0.0
sg117
g314
sg119
I105
sg120
F4.434116013556377
sbsI106
g0
(g110
g2
Ntp438
Rp439
(dp440
g114
g313
sg116
F0.10772145825813007
sg117
g314
sg119
I106
sg120
F2.6735824229457017
sbsI107
g0
(g110
g2
Ntp441
Rp442
(dp443
g114
g313
sg116
F4.777202743299768
sg117
g314
sg119
I107
sg120
F6.55392574567057
sbsI108
g0
(g110
g2
Ntp444
Rp445
(dp446
g114
g313
sg116
F0.0
sg117
g314
sg119
I108
sg120
F4.734251257588692
sbsI109
g0
(g110
g2
Ntp447
Rp448
(dp449
g114
g313
sg116
F0.05473628014145726
sg117
g314
sg119
I109
sg120
F0.16513162741200652
sbsI110
g0
(g110
g2
Ntp450
Rp451
(dp452
g114
g313
sg116
F0.1348090654255254
sg117
g314
sg119
I110
sg120
F8.547938860551344
sbsI111
g0
(g110
g2
Ntp453
Rp454
(dp455
g114
g313
sg116
F-9.589872692654346
sg117
g314
sg119
I111
sg120
F1.1423965601871338
sbsI112
g0
(g110
g2
Ntp456
Rp457
(dp458
g114
g313
sg116
F4.565935145191167
sg117
g314
sg119
I112
sg120
F1.9159919142285151
sbsI113
g0
(g110
g2
Ntp459
Rp460
(dp461
g114
g313
sg116
F-3.687384039071742
sg117
g314
sg119
I113
sg120
F5.600493587790107
sbsI114
g0
(g110
g2
Ntp462
Rp463
(dp464
g114
g313
sg116
F-1.9652243323976044
sg117
g314
sg119
I114
sg120
F3.4024394477663926
sbsI115
g0
(g110
g2
Ntp465
Rp466
(dp467
g114
g313
sg116
F-3.445757512940232
sg117
g314
sg119
I115
sg120
F5.646378639209914
sbsI116
g0
(g110
g2
Ntp468
Rp469
(dp470
g114
g313
sg116
F-0.912141415351152
sg117
g314
sg119
I116
sg120
F2.789154857630865
sbsI117
g0
(g110
g2
Ntp471
Rp472
(dp473
g114
g313
sg116
F-2.2833480239572737
sg117
g314
sg119
I117
sg120
F3.9639990019456706
sbsI118
g0
(g110
g2
Ntp474
Rp475
(dp476
g114
g313
sg116
F1.5430712658526038
sg117
g314
sg119
I118
sg120
F5.224018077976814
sbsI119
g0
(g110
g2
Ntp477
Rp478
(dp479
g114
g313
sg116
F0.8389645797609196
sg117
g314
sg119
I119
sg120
F3.8846510225706194
sbsI120
g0
(g110
g2
Ntp480
Rp481
(dp482
g114
g313
sg116
F-4.361420469891283
sg117
g314
sg119
I120
sg120
F3.432098815881499
sbsI121
g0
(g110
g2
Ntp483
Rp484
(dp485
g114
g313
sg116
F-0.3871259033718166
sg117
g314
sg119
I121
sg120
F5.145056350349571
sbsI122
g0
(g110
g2
Ntp486
Rp487
(dp488
g114
g313
sg116
F-2.287453173330268
sg117
g314
sg119
I122
sg120
F0.37994073873959006
sbsI123
g0
(g110
g2
Ntp489
Rp490
(dp491
g114
g313
sg116
F0.2053903476843617
sg117
g314
sg119
I123
sg120
F5.1984904139716415
sbsI124
g0
(g110
g2
Ntp492
Rp493
(dp494
g114
g313
sg116
F3.356900765973628
sg117
g314
sg119
I124
sg120
F2.010167597848107
sbsI125
g0
(g110
g2
Ntp495
Rp496
(dp497
g114
g313
sg116
F-1.7297194805080978
sg117
g314
sg119
I125
sg120
F4.389432970232135
sbsI126
g0
(g110
g2
Ntp498
Rp499
(dp500
g114
g313
sg116
F0.0
sg117
S'HIDDEN'
p501
sg119
I126
sg120
F5.2521136728462805
sbsI127
g0
(g110
g2
Ntp502
Rp503
(dp504
g114
g313
sg116
F0.0
sg117
g501
sg119
I127
sg120
F4.924273
sbsI128
g0
(g110
g2
Ntp505
Rp506
(dp507
g114
g313
sg116
F1.683161330380194
sg117
g501
sg119
I128
sg120
F7.038815993549606
sbsI129
g0
(g110
g2
Ntp508
Rp509
(dp510
g114
g313
sg116
F0.0
sg117
g501
sg119
I129
sg120
F5.882256933061305
sbssS'node_order'
p511
(lp512
I126
aI127
aI128
aI129
asS'num_outputs'
p513
I62
sS'fitness'
p514
I8681
sS'parent2_id'
p515
I8628
sS'config'
p516
g0
(cneat.config
Config
p517
g2
Ntp518
Rp519
(dp520
S'weight_stdev'
p521
F5.0
sS'disjoint_coefficient'
p522
F1.0
sS'prob_delete_node'
p523
F0.4
sS'initial_connection'
p524
S'unconnected'
p525
sS'stagnation_type'
p526
cneat.stagnation
DefaultStagnation
p527
sS'weight_mutation_power'
p528
F0.5
sS'excess_coefficient'
p529
F1.0
sS'compatibility_threshold'
p530
F3.0
sS'pop_size'
p531
I150
sS'weight_coefficient'
p532
F0.5
sS'feedforward'
p533
I01
sS'prob_add_node'
p534
F0.5
sS'genotype'
p535
g1
sS'type_config'
p536
(dp537
S'DefaultStagnation'
p538
(lp539
(S'species_fitness_func'
p540
S'mean'
p541
tp542
a(S'max_stagnation'
p543
S'8'
p544
tp545
asS'DefaultReproduction'
p546
(lp547
(S'elitism'
p548
S'2'
p549
tp550
a(S'survival_threshold'
p551
S'0.2'
p552
tp553
assS'prob_mutate_activation'
p554
F0.02
sS'conn_gene_type'
p555
g10
sS'connection_fraction'
p556
NsS'activation_functions'
p557
(lp558
g313
asS'save_best'
p559
I00
sS'response_mutation_power'
p560
F0.5
sS'prob_add_conn'
p561
F0.4
sS'checkpoint_time_interval'
p562
NsS'checkpoint_gen_interval'
p563
NsS'prob_mutate_bias'
p564
F0.05
sS'reproduction_type'
p565
cneat.reproduction
DefaultReproduction
p566
sS'node_gene_type'
p567
g110
sS'output_nodes'
p568
I62
sS'input_nodes'
p569
I64
sS'prob_replace_weight'
p570
F0.1
sS'registry'
p571
(dp572
S'DefaultStagnation'
p573
g527
sS'DefaultReproduction'
p574
g566
ssS'hidden_nodes'
p575
I0
sS'report'
p576
I00
sS'prob_mutate_response'
p577
F0.4
sS'collect_statistics'
p578
I01
sS'max_weight'
p579
F50.0
sS'prob_toggle_link'
p580
F0.01
sS'min_weight'
p581
F-50.0
sS'max_fitness_threshold'
p582
F100000.0
sS'bias_mutation_power'
p583
F2.0
sS'prob_delete_conn'
p584
F0.3
sS'reset_on_extinction'
p585
I01
sS'prob_mutate_weight'
p586
F0.2
sbsg119
I8781
sb.