ccopy_reg
_reconstructor
p0
(cneat.genome
FFGenome
p1
c__builtin__
object
p2
Ntp3
Rp4
(dp5
S'species_id'
p6
I10
sS'conn_genes'
p7
(dp8
(I109
I65
tp9
g0
(cneat.genes
ConnectionGene
p10
g2
Ntp11
Rp12
(dp13
S'weight'
p14
F-6.435483529472864
sS'enabled'
p15
I01
sS'out_node_id'
p16
I65
sS'in_node_id'
p17
I109
sbs(I169
I64
tp18
g0
(g10
g2
Ntp19
Rp20
(dp21
g14
F10.581501269287036
sg15
I01
sg16
I64
sg17
I169
sbs(I62
I64
tp22
g0
(g10
g2
Ntp23
Rp24
(dp25
g14
F4.087225536609902
sg15
I00
sg16
I64
sg17
I62
sbs(I50
I96
tp26
g0
(g10
g2
Ntp27
Rp28
(dp29
g14
F0.6625181403546464
sg15
I00
sg16
I96
sg17
I50
sbs(I149
I87
tp30
g0
(g10
g2
Ntp31
Rp32
(dp33
g14
F0.7920090131465362
sg15
I00
sg16
I87
sg17
I149
sbs(I98
I64
tp34
g0
(g10
g2
Ntp35
Rp36
(dp37
g14
F1.101237382958774
sg15
I01
sg16
I64
sg17
I98
sbs(I138
I65
tp38
g0
(g10
g2
Ntp39
Rp40
(dp41
g14
F-2.1971537158300913
sg15
I01
sg16
I65
sg17
I138
sbs(I72
I92
tp42
g0
(g10
g2
Ntp43
Rp44
(dp45
g14
F-1.7831499182890909
sg15
I01
sg16
I92
sg17
I72
sbs(I1
I64
tp46
g0
(g10
g2
Ntp47
Rp48
(dp49
g14
F-3.5251115314496606
sg15
I00
sg16
I64
sg17
I1
sbs(I43
I64
tp50
g0
(g10
g2
Ntp51
Rp52
(dp53
g14
F-4.91795946222801
sg15
I00
sg16
I64
sg17
I43
sbs(I137
I91
tp54
g0
(g10
g2
Ntp55
Rp56
(dp57
g14
F0.47526397056347514
sg15
I01
sg16
I91
sg17
I137
sbs(I53
I64
tp58
g0
(g10
g2
Ntp59
Rp60
(dp61
g14
F6.910628737783133
sg15
I00
sg16
I64
sg17
I53
sbs(I17
I64
tp62
g0
(g10
g2
Ntp63
Rp64
(dp65
g14
F4.203873634842464
sg15
I01
sg16
I64
sg17
I17
sbs(I30
I100
tp66
g0
(g10
g2
Ntp67
Rp68
(dp69
g14
F0.07375785704357068
sg15
I00
sg16
I100
sg17
I30
sbs(I22
I65
tp70
g0
(g10
g2
Ntp71
Rp72
(dp73
g14
F10.458722217090662
sg15
I00
sg16
I65
sg17
I22
sbs(I58
I65
tp74
g0
(g10
g2
Ntp75
Rp76
(dp77
g14
F4.810375501930707
sg15
I00
sg16
I65
sg17
I58
sbs(I35
I65
tp78
g0
(g10
g2
Ntp79
Rp80
(dp81
g14
F-0.65283996515543
sg15
I01
sg16
I65
sg17
I35
sbs(I36
I67
tp82
g0
(g10
g2
Ntp83
Rp84
(dp85
g14
F2.000264622714817
sg15
I01
sg16
I67
sg17
I36
sbs(I63
I117
tp86
g0
(g10
g2
Ntp87
Rp88
(dp89
g14
F0.09546880360992838
sg15
I01
sg16
I117
sg17
I63
sbs(I7
I137
tp90
g0
(g10
g2
Ntp91
Rp92
(dp93
g14
F-6.313253123936664
sg15
I01
sg16
I137
sg17
I7
sbs(I57
I164
tp94
g0
(g10
g2
Ntp95
Rp96
(dp97
g14
F-0.544702428733288
sg15
I00
sg16
I164
sg17
I57
sbs(I136
I94
tp98
g0
(g10
g2
Ntp99
Rp100
(dp101
g14
F1.7056956528837621
sg15
I00
sg16
I94
sg17
I136
sbs(I141
I67
tp102
g0
(g10
g2
Ntp103
Rp104
(dp105
g14
F0.9254564148493276
sg15
I01
sg16
I67
sg17
I141
sbs(I2
I99
tp106
g0
(g10
g2
Ntp107
Rp108
(dp109
g14
F2.1222644794365073
sg15
I00
sg16
I99
sg17
I2
sbs(I26
I142
tp110
g0
(g10
g2
Ntp111
Rp112
(dp113
g14
F1.6652567468896309
sg15
I01
sg16
I142
sg17
I26
sbs(I71
I160
tp114
g0
(g10
g2
Ntp115
Rp116
(dp117
g14
F-2.7231297943966846
sg15
I01
sg16
I160
sg17
I71
sbs(I49
I170
tp118
g0
(g10
g2
Ntp119
Rp120
(dp121
g14
F2.9355805068880545
sg15
I01
sg16
I170
sg17
I49
sbs(I7
I91
tp122
g0
(g10
g2
Ntp123
Rp124
(dp125
g14
F16.896371215091403
sg15
I01
sg16
I91
sg17
I7
sbs(I83
I90
tp126
g0
(g10
g2
Ntp127
Rp128
(dp129
g14
F-2.129936187380993
sg15
I00
sg16
I90
sg17
I83
sbs(I47
I64
tp130
g0
(g10
g2
Ntp131
Rp132
(dp133
g14
F1.9694510961553826
sg15
I01
sg16
I64
sg17
I47
sbs(I134
I64
tp134
g0
(g10
g2
Ntp135
Rp136
(dp137
g14
F7.807556899497232
sg15
I01
sg16
I64
sg17
I134
sbs(I29
I107
tp138
g0
(g10
g2
Ntp139
Rp140
(dp141
g14
F2.2924971898675146
sg15
I01
sg16
I107
sg17
I29
sbs(I18
I108
tp142
g0
(g10
g2
Ntp143
Rp144
(dp145
g14
F-0.36116830580190984
sg15
I01
sg16
I108
sg17
I18
sbs(I125
I135
tp146
g0
(g10
g2
Ntp147
Rp148
(dp149
g14
F-1.2100393567478556
sg15
I01
sg16
I135
sg17
I125
sbs(I11
I72
tp150
g0
(g10
g2
Ntp151
Rp152
(dp153
g14
F-1.6037954431459163
sg15
I00
sg16
I72
sg17
I11
sbs(I38
I64
tp154
g0
(g10
g2
Ntp155
Rp156
(dp157
g14
F-7.996811943990014
sg15
I01
sg16
I64
sg17
I38
sbs(I28
I174
tp158
g0
(g10
g2
Ntp159
Rp160
(dp161
g14
F-5.391235091512516
sg15
I00
sg16
I174
sg17
I28
sbs(I72
I167
tp162
g0
(g10
g2
Ntp163
Rp164
(dp165
g14
F-9.836262973481329
sg15
I01
sg16
I167
sg17
I72
sbs(I74
I64
tp166
g0
(g10
g2
Ntp167
Rp168
(dp169
g14
F-5.509027488664384
sg15
I00
sg16
I64
sg17
I74
sbs(I54
I64
tp170
g0
(g10
g2
Ntp171
Rp172
(dp173
g14
F8.584137094120154
sg15
I00
sg16
I64
sg17
I54
sbs(I79
I120
tp174
g0
(g10
g2
Ntp175
Rp176
(dp177
g14
F4.919259994853007
sg15
I00
sg16
I120
sg17
I79
sbs(I45
I64
tp178
g0
(g10
g2
Ntp179
Rp180
(dp181
g14
F1.8012166710712396
sg15
I00
sg16
I64
sg17
I45
sbs(I121
I119
tp182
g0
(g10
g2
Ntp183
Rp184
(dp185
g14
F12.23519803177814
sg15
I01
sg16
I119
sg17
I121
sbs(I81
I64
tp186
g0
(g10
g2
Ntp187
Rp188
(dp189
g14
F0.4106933488270966
sg15
I00
sg16
I64
sg17
I81
sbs(I34
I65
tp190
g0
(g10
g2
Ntp191
Rp192
(dp193
g14
F-3.349468969930947
sg15
I01
sg16
I65
sg17
I34
sbs(I94
I118
tp194
g0
(g10
g2
Ntp195
Rp196
(dp197
g14
F0.9286642852400921
sg15
I01
sg16
I118
sg17
I94
sbs(I14
I65
tp198
g0
(g10
g2
Ntp199
Rp200
(dp201
g14
F-9.13496987012853
sg15
I00
sg16
I65
sg17
I14
sbs(I12
I81
tp202
g0
(g10
g2
Ntp203
Rp204
(dp205
g14
F16.180128674259826
sg15
I00
sg16
I81
sg17
I12
sbs(I178
I149
tp206
g0
(g10
g2
Ntp207
Rp208
(dp209
g14
F-6.097951693490142
sg15
I01
sg16
I149
sg17
I178
sbs(I2
I91
tp210
g0
(g10
g2
Ntp211
Rp212
(dp213
g14
F5.663133602540731
sg15
I00
sg16
I91
sg17
I2
sbs(I50
I65
tp214
g0
(g10
g2
Ntp215
Rp216
(dp217
g14
F-0.38810659863130015
sg15
I00
sg16
I65
sg17
I50
sbs(I139
I106
tp218
g0
(g10
g2
Ntp219
Rp220
(dp221
g14
F-4.797769387109616
sg15
I00
sg16
I106
sg17
I139
sbs(I27
I65
tp222
g0
(g10
g2
Ntp223
Rp224
(dp225
g14
F1.5266931297271498
sg15
I00
sg16
I65
sg17
I27
sbs(I122
I65
tp226
g0
(g10
g2
Ntp227
Rp228
(dp229
g14
F-2.577908041022971
sg15
I01
sg16
I65
sg17
I122
sbs(I102
I65
tp230
g0
(g10
g2
Ntp231
Rp232
(dp233
g14
F10.777840421126811
sg15
I00
sg16
I65
sg17
I102
sbs(I50
I91
tp234
g0
(g10
g2
Ntp235
Rp236
(dp237
g14
F0.362935337350629
sg15
I01
sg16
I91
sg17
I50
sbs(I79
I65
tp238
g0
(g10
g2
Ntp239
Rp240
(dp241
g14
F-3.0749418060218803
sg15
I01
sg16
I65
sg17
I79
sbs(I91
I93
tp242
g0
(g10
g2
Ntp243
Rp244
(dp245
g14
F-0.5925950630603102
sg15
I00
sg16
I93
sg17
I91
sbs(I18
I67
tp246
g0
(g10
g2
Ntp247
Rp248
(dp249
g14
F-1.5166928058108355
sg15
I01
sg16
I67
sg17
I18
sbs(I129
I102
tp250
g0
(g10
g2
Ntp251
Rp252
(dp253
g14
F-0.746815123338948
sg15
I01
sg16
I102
sg17
I129
sbs(I39
I106
tp254
g0
(g10
g2
Ntp255
Rp256
(dp257
g14
F5.691921044875528
sg15
I01
sg16
I106
sg17
I39
sbs(I37
I118
tp258
g0
(g10
g2
Ntp259
Rp260
(dp261
g14
F-0.8204785187804993
sg15
I00
sg16
I118
sg17
I37
sbs(I96
I92
tp262
g0
(g10
g2
Ntp263
Rp264
(dp265
g14
F1.1822637283968747
sg15
I00
sg16
I92
sg17
I96
sbs(I146
I64
tp266
g0
(g10
g2
Ntp267
Rp268
(dp269
g14
F3.9741473100656393
sg15
I01
sg16
I64
sg17
I146
sbs(I39
I64
tp270
g0
(g10
g2
Ntp271
Rp272
(dp273
g14
F2.813799231193761
sg15
I00
sg16
I64
sg17
I39
sbs(I165
I107
tp274
g0
(g10
g2
Ntp275
Rp276
(dp277
g14
F4.827685480796899
sg15
I01
sg16
I107
sg17
I165
sbs(I11
I92
tp278
g0
(g10
g2
Ntp279
Rp280
(dp281
g14
F2.172145477959194
sg15
I00
sg16
I92
sg17
I11
sbs(I54
I82
tp282
g0
(g10
g2
Ntp283
Rp284
(dp285
g14
F-0.1250031265851774
sg15
I01
sg16
I82
sg17
I54
sbs(I41
I166
tp286
g0
(g10
g2
Ntp287
Rp288
(dp289
g14
F6.235918375606407
sg15
I00
sg16
I166
sg17
I41
sbs(I30
I64
tp290
g0
(g10
g2
Ntp291
Rp292
(dp293
g14
F1.3913797528924907
sg15
I01
sg16
I64
sg17
I30
sbs(I28
I112
tp294
g0
(g10
g2
Ntp295
Rp296
(dp297
g14
F-3.343630724619154
sg15
I00
sg16
I112
sg17
I28
sbs(I58
I128
tp298
g0
(g10
g2
Ntp299
Rp300
(dp301
g14
F-7.2135562549077825
sg15
I01
sg16
I128
sg17
I58
sbs(I66
I64
tp302
g0
(g10
g2
Ntp303
Rp304
(dp305
g14
F0.3812089414634604
sg15
I01
sg16
I64
sg17
I66
sbs(I55
I102
tp306
g0
(g10
g2
Ntp307
Rp308
(dp309
g14
F0.6763003305321769
sg15
I00
sg16
I102
sg17
I55
sbs(I156
I113
tp310
g0
(g10
g2
Ntp311
Rp312
(dp313
g14
F10.707008198860278
sg15
I01
sg16
I113
sg17
I156
sbs(I135
I65
tp314
g0
(g10
g2
Ntp315
Rp316
(dp317
g14
F-0.98550359427382
sg15
I01
sg16
I65
sg17
I135
sbs(I171
I65
tp318
g0
(g10
g2
Ntp319
Rp320
(dp321
g14
F1.4084877206940805
sg15
I00
sg16
I65
sg17
I171
sbs(I38
I79
tp322
g0
(g10
g2
Ntp323
Rp324
(dp325
g14
F8.349319645646496
sg15
I01
sg16
I79
sg17
I38
sbs(I1
I95
tp326
g0
(g10
g2
Ntp327
Rp328
(dp329
g14
F8.619984059256783
sg15
I00
sg16
I95
sg17
I1
sbs(I26
I65
tp330
g0
(g10
g2
Ntp331
Rp332
(dp333
g14
F-7.811098354675117
sg15
I01
sg16
I65
sg17
I26
sbs(I6
I65
tp334
g0
(g10
g2
Ntp335
Rp336
(dp337
g14
F-3.6881793853738603
sg15
I00
sg16
I65
sg17
I6
sbs(I92
I91
tp338
g0
(g10
g2
Ntp339
Rp340
(dp341
g14
F0.030054838613942092
sg15
I01
sg16
I91
sg17
I92
sbs(I55
I65
tp342
g0
(g10
g2
Ntp343
Rp344
(dp345
g14
F-0.503466065854028
sg15
I01
sg16
I65
sg17
I55
sbs(I6
I91
tp346
g0
(g10
g2
Ntp347
Rp348
(dp349
g14
F1.1078125763176756
sg15
I01
sg16
I91
sg17
I6
sbs(I26
I140
tp350
g0
(g10
g2
Ntp351
Rp352
(dp353
g14
F10.378045162495942
sg15
I01
sg16
I140
sg17
I26
sbs(I91
I65
tp354
g0
(g10
g2
Ntp355
Rp356
(dp357
g14
F-1.70067359849725
sg15
I01
sg16
I65
sg17
I91
sbs(I69
I81
tp358
g0
(g10
g2
Ntp359
Rp360
(dp361
g14
F-5.923712743229777
sg15
I01
sg16
I81
sg17
I69
sbs(I8
I64
tp362
g0
(g10
g2
Ntp363
Rp364
(dp365
g14
F-15.957202149438999
sg15
I00
sg16
I64
sg17
I8
sbs(I60
I64
tp366
g0
(g10
g2
Ntp367
Rp368
(dp369
g14
F11.490893827745497
sg15
I01
sg16
I64
sg17
I60
sbs(I47
I150
tp370
g0
(g10
g2
Ntp371
Rp372
(dp373
g14
F-3.053599890391371
sg15
I01
sg16
I150
sg17
I47
sbs(I15
I64
tp374
g0
(g10
g2
Ntp375
Rp376
(dp377
g14
F6.100956440088654
sg15
I00
sg16
I64
sg17
I15
sbs(I110
I154
tp378
g0
(g10
g2
Ntp379
Rp380
(dp381
g14
F7.849580123525007
sg15
I01
sg16
I154
sg17
I110
sbs(I3
I70
tp382
g0
(g10
g2
Ntp383
Rp384
(dp385
g14
F4.789947114849575
sg15
I01
sg16
I70
sg17
I3
sbs(I51
I64
tp386
g0
(g10
g2
Ntp387
Rp388
(dp389
g14
F1.9371297035117367
sg15
I00
sg16
I64
sg17
I51
sbs(I89
I80
tp390
g0
(g10
g2
Ntp391
Rp392
(dp393
g14
F-3.803753106088968
sg15
I00
sg16
I80
sg17
I89
sbs(I40
I88
tp394
g0
(g10
g2
Ntp395
Rp396
(dp397
g14
F0.5955911348687277
sg15
I01
sg16
I88
sg17
I40
sbs(I20
I65
tp398
g0
(g10
g2
Ntp399
Rp400
(dp401
g14
F0.2312845492640381
sg15
I00
sg16
I65
sg17
I20
sbs(I154
I73
tp402
g0
(g10
g2
Ntp403
Rp404
(dp405
g14
F1.0582028677689999
sg15
I01
sg16
I73
sg17
I154
sbs(I119
I64
tp406
g0
(g10
g2
Ntp407
Rp408
(dp409
g14
F0.6008666342748545
sg15
I00
sg16
I64
sg17
I119
sbs(I16
I90
tp410
g0
(g10
g2
Ntp411
Rp412
(dp413
g14
F11.69656878889991
sg15
I00
sg16
I90
sg17
I16
sbs(I56
I65
tp414
g0
(g10
g2
Ntp415
Rp416
(dp417
g14
F2.1926362090330893
sg15
I00
sg16
I65
sg17
I56
sbs(I89
I149
tp418
g0
(g10
g2
Ntp419
Rp420
(dp421
g14
F-0.0831371293600747
sg15
I00
sg16
I149
sg17
I89
sbs(I33
I65
tp422
g0
(g10
g2
Ntp423
Rp424
(dp425
g14
F-2.018219961352868
sg15
I00
sg16
I65
sg17
I33
sbs(I40
I132
tp426
g0
(g10
g2
Ntp427
Rp428
(dp429
g14
F-4.077794960193071
sg15
I01
sg16
I132
sg17
I40
sbs(I172
I162
tp430
g0
(g10
g2
Ntp431
Rp432
(dp433
g14
F12.83011909377146
sg15
I01
sg16
I162
sg17
I172
sbs(I44
I144
tp434
g0
(g10
g2
Ntp435
Rp436
(dp437
g14
F6.064530766104602
sg15
I01
sg16
I144
sg17
I44
sbs(I160
I94
tp438
g0
(g10
g2
Ntp439
Rp440
(dp441
g14
F-1.874216561705693
sg15
I00
sg16
I94
sg17
I160
sbs(I161
I64
tp442
g0
(g10
g2
Ntp443
Rp444
(dp445
g14
F1.2089931955262159
sg15
I00
sg16
I64
sg17
I161
sbs(I98
I116
tp446
g0
(g10
g2
Ntp447
Rp448
(dp449
g14
F5.244318420252059
sg15
I01
sg16
I116
sg17
I98
sbs(I1
I101
tp450
g0
(g10
g2
Ntp451
Rp452
(dp453
g14
F-8.927942775279222
sg15
I01
sg16
I101
sg17
I1
sbs(I22
I104
tp454
g0
(g10
g2
Ntp455
Rp456
(dp457
g14
F5.882149413622091
sg15
I00
sg16
I104
sg17
I22
sbs(I152
I64
tp458
g0
(g10
g2
Ntp459
Rp460
(dp461
g14
F-10.934899851998201
sg15
I00
sg16
I64
sg17
I152
sbs(I18
I65
tp462
g0
(g10
g2
Ntp463
Rp464
(dp465
g14
F7.219036549523291
sg15
I01
sg16
I65
sg17
I18
sbs(I23
I100
tp466
g0
(g10
g2
Ntp467
Rp468
(dp469
g14
F-6.702042239190925
sg15
I01
sg16
I100
sg17
I23
sbs(I168
I163
tp470
g0
(g10
g2
Ntp471
Rp472
(dp473
g14
F-3.2308680120834943
sg15
I01
sg16
I163
sg17
I168
sbs(I80
I69
tp474
g0
(g10
g2
Ntp475
Rp476
(dp477
g14
F-1.9139452885371435
sg15
I00
sg16
I69
sg17
I80
sbs(I70
I65
tp478
g0
(g10
g2
Ntp479
Rp480
(dp481
g14
F0.6510844946050389
sg15
I00
sg16
I65
sg17
I70
sbs(I136
I105
tp482
g0
(g10
g2
Ntp483
Rp484
(dp485
g14
F-2.572120708388967
sg15
I00
sg16
I105
sg17
I136
sbs(I106
I65
tp486
g0
(g10
g2
Ntp487
Rp488
(dp489
g14
F-6.044241185696506
sg15
I00
sg16
I65
sg17
I106
sbs(I0
I64
tp490
g0
(g10
g2
Ntp491
Rp492
(dp493
g14
F-3.0686535942123796
sg15
I01
sg16
I64
sg17
I0
sbs(I93
I180
tp494
g0
(g10
g2
Ntp495
Rp496
(dp497
g14
F0.6926581640356158
sg15
I01
sg16
I180
sg17
I93
sbs(I52
I64
tp498
g0
(g10
g2
Ntp499
Rp500
(dp501
g14
F-0.2400394028882441
sg15
I01
sg16
I64
sg17
I52
sbs(I98
I182
tp502
g0
(g10
g2
Ntp503
Rp504
(dp505
g14
F1.5964604284087085
sg15
I01
sg16
I182
sg17
I98
sbs(I29
I66
tp506
g0
(g10
g2
Ntp507
Rp508
(dp509
g14
F0.8551713359077786
sg15
I01
sg16
I66
sg17
I29
sbs(I164
I65
tp510
g0
(g10
g2
Ntp511
Rp512
(dp513
g14
F6.109987219599045
sg15
I01
sg16
I65
sg17
I164
sbs(I176
I179
tp514
g0
(g10
g2
Ntp515
Rp516
(dp517
g14
F0.8908788680561139
sg15
I01
sg16
I179
sg17
I176
sbs(I7
I64
tp518
g0
(g10
g2
Ntp519
Rp520
(dp521
g14
F-6.2266578833301915
sg15
I01
sg16
I64
sg17
I7
sbs(I1
I153
tp522
g0
(g10
g2
Ntp523
Rp524
(dp525
g14
F-3.312511990443318
sg15
I01
sg16
I153
sg17
I1
sbs(I5
I80
tp526
g0
(g10
g2
Ntp527
Rp528
(dp529
g14
F-0.07599073772297091
sg15
I01
sg16
I80
sg17
I5
sbs(I88
I102
tp530
g0
(g10
g2
Ntp531
Rp532
(dp533
g14
F-0.6572585319922102
sg15
I01
sg16
I102
sg17
I88
sbs(I180
I65
tp534
g0
(g10
g2
Ntp535
Rp536
(dp537
g14
F-1.5627294859847531
sg15
I01
sg16
I65
sg17
I180
sbs(I177
I65
tp538
g0
(g10
g2
Ntp539
Rp540
(dp541
g14
F0.8495148037690128
sg15
I01
sg16
I65
sg17
I177
sbs(I138
I175
tp542
g0
(g10
g2
Ntp543
Rp544
(dp545
g14
F1.530880661833131
sg15
I00
sg16
I175
sg17
I138
sbs(I157
I65
tp546
g0
(g10
g2
Ntp547
Rp548
(dp549
g14
F-2.3506820293464035
sg15
I00
sg16
I65
sg17
I157
sbs(I32
I65
tp550
g0
(g10
g2
Ntp551
Rp552
(dp553
g14
F-2.2762574458616482
sg15
I01
sg16
I65
sg17
I32
sbs(I12
I65
tp554
g0
(g10
g2
Ntp555
Rp556
(dp557
g14
F-0.22001170172986673
sg15
I01
sg16
I65
sg17
I12
sbs(I9
I65
tp558
g0
(g10
g2
Ntp559
Rp560
(dp561
g14
F7.239607625790721
sg15
I01
sg16
I65
sg17
I9
sbs(I84
I65
tp562
g0
(g10
g2
Ntp563
Rp564
(dp565
g14
F1.7790053703953923
sg15
I00
sg16
I65
sg17
I84
sbs(I61
I65
tp566
g0
(g10
g2
Ntp567
Rp568
(dp569
g14
F4.52293305863641
sg15
I00
sg16
I65
sg17
I61
sbs(I25
I65
tp570
g0
(g10
g2
Ntp571
Rp572
(dp573
g14
F-0.8325808706361421
sg15
I01
sg16
I65
sg17
I25
sbs(I120
I65
tp574
g0
(g10
g2
Ntp575
Rp576
(dp577
g14
F-3.4254661365239323
sg15
I00
sg16
I65
sg17
I120
sbs(I100
I65
tp578
g0
(g10
g2
Ntp579
Rp580
(dp581
g14
F-4.420355926408856
sg15
I01
sg16
I65
sg17
I100
sbs(I97
I65
tp582
g0
(g10
g2
Ntp583
Rp584
(dp585
g14
F6.16615130191213
sg15
I00
sg16
I65
sg17
I97
sbs(I113
I65
tp586
g0
(g10
g2
Ntp587
Rp588
(dp589
g14
F-0.3421026321772405
sg15
I01
sg16
I65
sg17
I113
sbs(I164
I173
tp590
g0
(g10
g2
Ntp591
Rp592
(dp593
g14
F8.610449900836496
sg15
I00
sg16
I173
sg17
I164
sbs(I47
I102
tp594
g0
(g10
g2
Ntp595
Rp596
(dp597
g14
F-2.9032553614715515
sg15
I01
sg16
I102
sg17
I47
sbs(I44
I73
tp598
g0
(g10
g2
Ntp599
Rp600
(dp601
g14
F-7.455122548334695
sg15
I01
sg16
I73
sg17
I44
sbs(I91
I67
tp602
g0
(g10
g2
Ntp603
Rp604
(dp605
g14
F-0.01455931051080328
sg15
I01
sg16
I67
sg17
I91
sbs(I28
I150
tp606
g0
(g10
g2
Ntp607
Rp608
(dp609
g14
F6.589214058603144
sg15
I01
sg16
I150
sg17
I28
sbs(I57
I64
tp610
g0
(g10
g2
Ntp611
Rp612
(dp613
g14
F0.24945078290973066
sg15
I00
sg16
I64
sg17
I57
sbs(I37
I64
tp614
g0
(g10
g2
Ntp615
Rp616
(dp617
g14
F1.0275573700768121
sg15
I01
sg16
I64
sg17
I37
sbs(I19
I161
tp618
g0
(g10
g2
Ntp619
Rp620
(dp621
g14
F-2.0493938497611377
sg15
I01
sg16
I161
sg17
I19
sbs(I10
I162
tp622
g0
(g10
g2
Ntp623
Rp624
(dp625
g14
F0.7683611511178914
sg15
I01
sg16
I162
sg17
I10
sbs(I103
I100
tp626
g0
(g10
g2
Ntp627
Rp628
(dp629
g14
F6.616684003767994
sg15
I00
sg16
I100
sg17
I103
sbs(I50
I92
tp630
g0
(g10
g2
Ntp631
Rp632
(dp633
g14
F-0.6330635512895137
sg15
I01
sg16
I92
sg17
I50
sbs(I28
I64
tp634
g0
(g10
g2
Ntp635
Rp636
(dp637
g14
F0.019191227707828384
sg15
I01
sg16
I64
sg17
I28
sbs(I21
I111
tp638
g0
(g10
g2
Ntp639
Rp640
(dp641
g14
F-3.8721618517142193
sg15
I00
sg16
I111
sg17
I21
sbs(I44
I64
tp642
g0
(g10
g2
Ntp643
Rp644
(dp645
g14
F9.63416817822177
sg15
I01
sg16
I64
sg17
I44
sbs(I116
I64
tp646
g0
(g10
g2
Ntp647
Rp648
(dp649
g14
F-7.389399151646413
sg15
I01
sg16
I64
sg17
I116
sbs(I30
I124
tp650
g0
(g10
g2
Ntp651
Rp652
(dp653
g14
F-2.1473593581578547
sg15
I01
sg16
I124
sg17
I30
sbs(I11
I111
tp654
g0
(g10
g2
Ntp655
Rp656
(dp657
g14
F6.63053875236759
sg15
I01
sg16
I111
sg17
I11
sbs(I63
I103
tp658
g0
(g10
g2
Ntp659
Rp660
(dp661
g14
F-6.7718235292469044
sg15
I00
sg16
I103
sg17
I63
sbs(I138
I102
tp662
g0
(g10
g2
Ntp663
Rp664
(dp665
g14
F-1.6234143594388466
sg15
I01
sg16
I102
sg17
I138
sbs(I46
I65
tp666
g0
(g10
g2
Ntp667
Rp668
(dp669
g14
F-7.100914138454801
sg15
I01
sg16
I65
sg17
I46
sbs(I26
I81
tp670
g0
(g10
g2
Ntp671
Rp672
(dp673
g14
F-13.780562354148074
sg15
I00
sg16
I81
sg17
I26
sbs(I27
I69
tp674
g0
(g10
g2
Ntp675
Rp676
(dp677
g14
F1.535069534269398
sg15
I01
sg16
I69
sg17
I27
sbs(I4
I65
tp678
g0
(g10
g2
Ntp679
Rp680
(dp681
g14
F-4.331041754035132
sg15
I00
sg16
I65
sg17
I4
sbs(I1
I65
tp682
g0
(g10
g2
Ntp683
Rp684
(dp685
g14
F-10.883557433589452
sg15
I01
sg16
I65
sg17
I1
sbs(I52
I123
tp686
g0
(g10
g2
Ntp687
Rp688
(dp689
g14
F1.006701127524897
sg15
I01
sg16
I123
sg17
I52
sbs(I53
I65
tp690
g0
(g10
g2
Ntp691
Rp692
(dp693
g14
F15.691226337329235
sg15
I00
sg16
I65
sg17
I53
sbs(I17
I65
tp694
g0
(g10
g2
Ntp695
Rp696
(dp697
g14
F-6.70093312584929
sg15
I01
sg16
I65
sg17
I17
sbs(I112
I65
tp698
g0
(g10
g2
Ntp699
Rp700
(dp701
g14
F8.004335333770982
sg15
I01
sg16
I65
sg17
I112
sbs(I27
I145
tp702
g0
(g10
g2
Ntp703
Rp704
(dp705
g14
F-0.15261694327046688
sg15
I01
sg16
I145
sg17
I27
sbs(I69
I65
tp706
g0
(g10
g2
Ntp707
Rp708
(dp709
g14
F-3.42380851429545
sg15
I00
sg16
I65
sg17
I69
sbs(I17
I91
tp710
g0
(g10
g2
Ntp711
Rp712
(dp713
g14
F1.4090875362825304
sg15
I01
sg16
I91
sg17
I17
sbs(I22
I64
tp714
g0
(g10
g2
Ntp715
Rp716
(dp717
g14
F1.8147082375821015
sg15
I01
sg16
I64
sg17
I22
sbs(I33
I88
tp718
g0
(g10
g2
Ntp719
Rp720
(dp721
g14
F-3.092397809791106
sg15
I01
sg16
I88
sg17
I33
sbs(I58
I64
tp722
g0
(g10
g2
Ntp723
Rp724
(dp725
g14
F-18.500355999101718
sg15
I00
sg16
I64
sg17
I58
sbs(I18
I148
tp726
g0
(g10
g2
Ntp727
Rp728
(dp729
g14
F-6.75475874739898
sg15
I00
sg16
I148
sg17
I18
sbs(I13
I64
tp730
g0
(g10
g2
Ntp731
Rp732
(dp733
g14
F-5.879666353194191
sg15
I00
sg16
I64
sg17
I13
sbs(I38
I72
tp734
g0
(g10
g2
Ntp735
Rp736
(dp737
g14
F0.7049270515097823
sg15
I01
sg16
I72
sg17
I38
sbs(I49
I64
tp738
g0
(g10
g2
Ntp739
Rp740
(dp741
g14
F-11.059176625064335
sg15
I00
sg16
I64
sg17
I49
sbs(I29
I64
tp742
g0
(g10
g2
Ntp743
Rp744
(dp745
g14
F-3.861245872901344
sg15
I01
sg16
I64
sg17
I29
sbs(I75
I90
tp746
g0
(g10
g2
Ntp747
Rp748
(dp749
g14
F-5.196751494192537
sg15
I00
sg16
I90
sg17
I75
sbs(I4
I86
tp750
g0
(g10
g2
Ntp751
Rp752
(dp753
g14
F-0.6898393271467977
sg15
I01
sg16
I86
sg17
I4
sbs(I142
I119
tp754
g0
(g10
g2
Ntp755
Rp756
(dp757
g14
F-3.8953204704723636
sg15
I01
sg16
I119
sg17
I142
sbs(I40
I110
tp758
g0
(g10
g2
Ntp759
Rp760
(dp761
g14
F1.6208359524582974
sg15
I00
sg16
I110
sg17
I40
sbs(I55
I129
tp762
g0
(g10
g2
Ntp763
Rp764
(dp765
g14
F-3.2483227595047603
sg15
I00
sg16
I129
sg17
I55
sbs(I85
I81
tp766
g0
(g10
g2
Ntp767
Rp768
(dp769
g14
F-3.5474781699849043
sg15
I00
sg16
I81
sg17
I85
sbs(I150
I88
tp770
g0
(g10
g2
Ntp771
Rp772
(dp773
g14
F-6.8163762814169795
sg15
I00
sg16
I88
sg17
I150
sbs(I108
I64
tp774
g0
(g10
g2
Ntp775
Rp776
(dp777
g14
F-7.096211982918742
sg15
I01
sg16
I64
sg17
I108
sbs(I4
I146
tp778
g0
(g10
g2
Ntp779
Rp780
(dp781
g14
F-5.6352550342824825
sg15
I01
sg16
I146
sg17
I4
sbs(I48
I67
tp782
g0
(g10
g2
Ntp783
Rp784
(dp785
g14
F-2.775726341641721
sg15
I01
sg16
I67
sg17
I48
sbs(I53
I169
tp786
g0
(g10
g2
Ntp787
Rp788
(dp789
g14
F-2.803504992841846
sg15
I01
sg16
I169
sg17
I53
sbs(I163
I70
tp790
g0
(g10
g2
Ntp791
Rp792
(dp793
g14
F7.688848975104616
sg15
I01
sg16
I70
sg17
I163
sbs(I26
I119
tp794
g0
(g10
g2
Ntp795
Rp796
(dp797
g14
F-5.619035349658629
sg15
I00
sg16
I119
sg17
I26
sbs(I16
I65
tp798
g0
(g10
g2
Ntp799
Rp800
(dp801
g14
F-4.120339156112546
sg15
I01
sg16
I65
sg17
I16
sbs(I130
I64
tp802
g0
(g10
g2
Ntp803
Rp804
(dp805
g14
F-0.1708811510123271
sg15
I01
sg16
I64
sg17
I130
sbs(I182
I64
tp806
g0
(g10
g2
Ntp807
Rp808
(dp809
g14
F1.593243057120626
sg15
I01
sg16
I64
sg17
I182
sbs(I45
I65
tp810
g0
(g10
g2
Ntp811
Rp812
(dp813
g14
F5.916467704245459
sg15
I00
sg16
I65
sg17
I45
sbs(I49
I134
tp814
g0
(g10
g2
Ntp815
Rp816
(dp817
g14
F0.1141576831406047
sg15
I01
sg16
I134
sg17
I49
sbs(I127
I135
tp818
g0
(g10
g2
Ntp819
Rp820
(dp821
g14
F-4.614538431338923
sg15
I00
sg16
I135
sg17
I127
sbs(I72
I106
tp822
g0
(g10
g2
Ntp823
Rp824
(dp825
g14
F-0.2575863748009297
sg15
I01
sg16
I106
sg17
I72
sbs(I45
I91
tp826
g0
(g10
g2
Ntp827
Rp828
(dp829
g14
F0.4614545719712248
sg15
I00
sg16
I91
sg17
I45
sbs(I34
I64
tp830
g0
(g10
g2
Ntp831
Rp832
(dp833
g14
F5.550206893226689
sg15
I00
sg16
I64
sg17
I34
sbs(I86
I64
tp834
g0
(g10
g2
Ntp835
Rp836
(dp837
g14
F0.8580203604464511
sg15
I01
sg16
I64
sg17
I86
sbs(I50
I64
tp838
g0
(g10
g2
Ntp839
Rp840
(dp841
g14
F-8.563356673611745
sg15
I01
sg16
I64
sg17
I50
sbs(I162
I65
tp842
g0
(g10
g2
Ntp843
Rp844
(dp845
g14
F0.003979615185360025
sg15
I01
sg16
I65
sg17
I162
sbs(I0
I108
tp846
g0
(g10
g2
Ntp847
Rp848
(dp849
g14
F5.316215542757599
sg15
I00
sg16
I108
sg17
I0
sbs(I141
I113
tp850
g0
(g10
g2
Ntp851
Rp852
(dp853
g14
F0.11239176041262194
sg15
I01
sg16
I113
sg17
I141
sbs(I26
I126
tp854
g0
(g10
g2
Ntp855
Rp856
(dp857
g14
F2.5998438328347118
sg15
I00
sg16
I126
sg17
I26
sbs(I5
I64
tp858
g0
(g10
g2
Ntp859
Rp860
(dp861
g14
F-3.3974454117753843
sg15
I00
sg16
I64
sg17
I5
sbs(I132
I89
tp862
g0
(g10
g2
Ntp863
Rp864
(dp865
g14
F7.976725061691022
sg15
I01
sg16
I89
sg17
I132
sbs(I20
I77
tp866
g0
(g10
g2
Ntp867
Rp868
(dp869
g14
F3.8486439862727595
sg15
I01
sg16
I77
sg17
I20
sbs(I41
I64
tp870
g0
(g10
g2
Ntp871
Rp872
(dp873
g14
F4.779017743864186
sg15
I00
sg16
I64
sg17
I41
sbs(I155
I65
tp874
g0
(g10
g2
Ntp875
Rp876
(dp877
g14
F0.6794064286219246
sg15
I00
sg16
I65
sg17
I155
sbs(I40
I98
tp878
g0
(g10
g2
Ntp879
Rp880
(dp881
g14
F3.8706697793831797
sg15
I01
sg16
I98
sg17
I40
sbs(I110
I115
tp882
g0
(g10
g2
Ntp883
Rp884
(dp885
g14
F-0.08026001618789791
sg15
I01
sg16
I115
sg17
I110
sbs(I150
I112
tp886
g0
(g10
g2
Ntp887
Rp888
(dp889
g14
F6.298450741807665
sg15
I00
sg16
I112
sg17
I150
sbs(I41
I106
tp890
g0
(g10
g2
Ntp891
Rp892
(dp893
g14
F-4.975627370497589
sg15
I01
sg16
I106
sg17
I41
sbs(I89
I96
tp894
g0
(g10
g2
Ntp895
Rp896
(dp897
g14
F3.115531999704672
sg15
I01
sg16
I96
sg17
I89
sbs(I10
I65
tp898
g0
(g10
g2
Ntp899
Rp900
(dp901
g14
F-1.1051827961217469
sg15
I00
sg16
I65
sg17
I10
sbs(I54
I158
tp902
g0
(g10
g2
Ntp903
Rp904
(dp905
g14
F3.539196327987454
sg15
I01
sg16
I158
sg17
I54
sbs(I14
I75
tp906
g0
(g10
g2
Ntp907
Rp908
(dp909
g14
F-0.941214310140575
sg15
I00
sg16
I75
sg17
I14
sbs(I62
I65
tp910
g0
(g10
g2
Ntp911
Rp912
(dp913
g14
F-0.43164077512071364
sg15
I00
sg16
I65
sg17
I62
sbs(I59
I65
tp914
g0
(g10
g2
Ntp915
Rp916
(dp917
g14
F4.871453195422035
sg15
I00
sg16
I65
sg17
I59
sbs(I29
I136
tp918
g0
(g10
g2
Ntp919
Rp920
(dp921
g14
F-1.8490272767773512
sg15
I00
sg16
I136
sg17
I29
sbs(I0
I77
tp922
g0
(g10
g2
Ntp923
Rp924
(dp925
g14
F-4.25590921073517
sg15
I01
sg16
I77
sg17
I0
sbs(I92
I102
tp926
g0
(g10
g2
Ntp927
Rp928
(dp929
g14
F7.361644827466307
sg15
I01
sg16
I102
sg17
I92
sbs(I26
I95
tp930
g0
(g10
g2
Ntp931
Rp932
(dp933
g14
F1.925179998627389
sg15
I00
sg16
I95
sg17
I26
sbs(I75
I65
tp934
g0
(g10
g2
Ntp935
Rp936
(dp937
g14
F-0.034803956381842804
sg15
I00
sg16
I65
sg17
I75
sbs(I52
I69
tp938
g0
(g10
g2
Ntp939
Rp940
(dp941
g14
F4.6564574863627755
sg15
I00
sg16
I69
sg17
I52
sbs(I170
I131
tp942
g0
(g10
g2
Ntp943
Rp944
(dp945
g14
F-7.785966600755479
sg15
I00
sg16
I131
sg17
I170
sbs(I26
I121
tp946
g0
(g10
g2
Ntp947
Rp948
(dp949
g14
F0.48251613285095385
sg15
I00
sg16
I121
sg17
I26
sbs(I127
I65
tp950
g0
(g10
g2
Ntp951
Rp952
(dp953
g14
F-4.309137078358229
sg15
I01
sg16
I65
sg17
I127
sbs(I53
I79
tp954
g0
(g10
g2
Ntp955
Rp956
(dp957
g14
F-2.549253899177896
sg15
I01
sg16
I79
sg17
I53
sbs(I6
I99
tp958
g0
(g10
g2
Ntp959
Rp960
(dp961
g14
F6.159503368696383
sg15
I01
sg16
I99
sg17
I6
sbs(I103
I83
tp962
g0
(g10
g2
Ntp963
Rp964
(dp965
g14
F-2.373586739203063
sg15
I00
sg16
I83
sg17
I103
sbs(I2
I131
tp966
g0
(g10
g2
Ntp967
Rp968
(dp969
g14
F5.612290946695587
sg15
I01
sg16
I131
sg17
I2
sbs(I19
I64
tp970
g0
(g10
g2
Ntp971
Rp972
(dp973
g14
F-5.475129133849952
sg15
I01
sg16
I64
sg17
I19
sbs(I40
I143
tp974
g0
(g10
g2
Ntp975
Rp976
(dp977
g14
F3.9646231915689265
sg15
I01
sg16
I143
sg17
I40
sbs(I35
I64
tp978
g0
(g10
g2
Ntp979
Rp980
(dp981
g14
F0.6585359061296027
sg15
I01
sg16
I64
sg17
I35
sbs(I49
I70
tp982
g0
(g10
g2
Ntp983
Rp984
(dp985
g14
F16.86240481230342
sg15
I01
sg16
I70
sg17
I49
sbs(I9
I129
tp986
g0
(g10
g2
Ntp987
Rp988
(dp989
g14
F-2.8757972726344523
sg15
I01
sg16
I129
sg17
I9
sbs(I29
I94
tp990
g0
(g10
g2
Ntp991
Rp992
(dp993
g14
F-1.2181979708644626
sg15
I00
sg16
I94
sg17
I29
sbs(I26
I64
tp994
g0
(g10
g2
Ntp995
Rp996
(dp997
g14
F4.451755705207916
sg15
I00
sg16
I64
sg17
I26
sbs(I125
I74
tp998
g0
(g10
g2
Ntp999
Rp1000
(dp1001
g14
F-5.055942902190396
sg15
I00
sg16
I74
sg17
I125
sbs(I96
I176
tp1002
g0
(g10
g2
Ntp1003
Rp1004
(dp1005
g14
F3.4674951301236865
sg15
I01
sg16
I176
sg17
I96
sbs(I42
I64
tp1006
g0
(g10
g2
Ntp1007
Rp1008
(dp1009
g14
F3.441436320512644
sg15
I00
sg16
I64
sg17
I42
sbs(I6
I90
tp1010
g0
(g10
g2
Ntp1011
Rp1012
(dp1013
g14
F0.2084417827945117
sg15
I00
sg16
I90
sg17
I6
sbs(I44
I78
tp1014
g0
(g10
g2
Ntp1015
Rp1016
(dp1017
g14
F5.324658180961374
sg15
I01
sg16
I78
sg17
I44
sbs(I153
I101
tp1018
g0
(g10
g2
Ntp1019
Rp1020
(dp1021
g14
F-1.219126417539361
sg15
I00
sg16
I101
sg17
I153
sbs(I43
I90
tp1022
g0
(g10
g2
Ntp1023
Rp1024
(dp1025
g14
F-3.30115162439505
sg15
I00
sg16
I90
sg17
I43
sbs(I51
I163
tp1026
g0
(g10
g2
Ntp1027
Rp1028
(dp1029
g14
F2.218190087504989
sg15
I00
sg16
I163
sg17
I51
sbs(I143
I132
tp1030
g0
(g10
g2
Ntp1031
Rp1032
(dp1033
g14
F-5.031046610211074
sg15
I01
sg16
I132
sg17
I143
sbs(I181
I113
tp1034
g0
(g10
g2
Ntp1035
Rp1036
(dp1037
g14
F-2.2920821120090547
sg15
I01
sg16
I113
sg17
I181
sbs(I110
I73
tp1038
g0
(g10
g2
Ntp1039
Rp1040
(dp1041
g14
F-2.0717747506727187
sg15
I00
sg16
I73
sg17
I110
sbs(I38
I65
tp1042
g0
(g10
g2
Ntp1043
Rp1044
(dp1045
g14
F-1.9576440059036724
sg15
I01
sg16
I65
sg17
I38
sbs(I123
I89
tp1046
g0
(g10
g2
Ntp1047
Rp1048
(dp1049
g14
F1.8914949480107575
sg15
I01
sg16
I89
sg17
I123
sbs(I56
I133
tp1050
g0
(g10
g2
Ntp1051
Rp1052
(dp1053
g14
F-5.957771997760051
sg15
I01
sg16
I133
sg17
I56
sbs(I44
I152
tp1054
g0
(g10
g2
Ntp1055
Rp1056
(dp1057
g14
F-0.6999843513792157
sg15
I00
sg16
I152
sg17
I44
sbs(I141
I156
tp1058
g0
(g10
g2
Ntp1059
Rp1060
(dp1061
g14
F6.671259175497532
sg15
I01
sg16
I156
sg17
I141
sbs(I124
I91
tp1062
g0
(g10
g2
Ntp1063
Rp1064
(dp1065
g14
F0.09321351301637665
sg15
I00
sg16
I91
sg17
I124
sbs(I54
I65
tp1066
g0
(g10
g2
Ntp1067
Rp1068
(dp1069
g14
F-1.2326946472535645
sg15
I00
sg16
I65
sg17
I54
sbs(I51
I65
tp1070
g0
(g10
g2
Ntp1071
Rp1072
(dp1073
g14
F-6.218271479066919
sg15
I00
sg16
I65
sg17
I51
sbs(I31
I65
tp1074
g0
(g10
g2
Ntp1075
Rp1076
(dp1077
g14
F10.576626853453844
sg15
I00
sg16
I65
sg17
I31
sbs(I90
I65
tp1078
g0
(g10
g2
Ntp1079
Rp1080
(dp1081
g14
F-2.7442404551918083
sg15
I01
sg16
I65
sg17
I90
sbs(I63
I132
tp1082
g0
(g10
g2
Ntp1083
Rp1084
(dp1085
g14
F-7.109630309469115
sg15
I01
sg16
I132
sg17
I63
sbs(I128
I114
tp1086
g0
(g10
g2
Ntp1087
Rp1088
(dp1089
g14
F2.0876549179450397
sg15
I00
sg16
I114
sg17
I128
sbs(I20
I64
tp1090
g0
(g10
g2
Ntp1091
Rp1092
(dp1093
g14
F-1.2960644981799774
sg15
I00
sg16
I64
sg17
I20
sbs(I130
I120
tp1094
g0
(g10
g2
Ntp1095
Rp1096
(dp1097
g14
F-0.24099926097541213
sg15
I01
sg16
I120
sg17
I130
sbs(I56
I64
tp1098
g0
(g10
g2
Ntp1099
Rp1100
(dp1101
g14
F-15.353181146320376
sg15
I01
sg16
I64
sg17
I56
sbs(I51
I168
tp1102
g0
(g10
g2
Ntp1103
Rp1104
(dp1105
g14
F-0.6869537782673624
sg15
I01
sg16
I168
sg17
I51
sbs(I80
I99
tp1106
g0
(g10
g2
Ntp1107
Rp1108
(dp1109
g14
F3.04306657118831
sg15
I00
sg16
I99
sg17
I80
sbs(I147
I81
tp1110
g0
(g10
g2
Ntp1111
Rp1112
(dp1113
g14
F-2.0426481415105107
sg15
I00
sg16
I81
sg17
I147
sbs(I11
I64
tp1114
g0
(g10
g2
Ntp1115
Rp1116
(dp1117
g14
F-0.7269888203442108
sg15
I00
sg16
I64
sg17
I11
sbs(I136
I71
tp1118
g0
(g10
g2
Ntp1119
Rp1120
(dp1121
g14
F-9.606150490469583
sg15
I00
sg16
I71
sg17
I136
sbs(I63
I64
tp1122
g0
(g10
g2
Ntp1123
Rp1124
(dp1125
g14
F0.21138294837419827
sg15
I00
sg16
I64
sg17
I63
sbs(I27
I64
tp1126
g0
(g10
g2
Ntp1127
Rp1128
(dp1129
g14
F5.818699733099822
sg15
I01
sg16
I64
sg17
I27
sbs(I51
I70
tp1130
g0
(g10
g2
Ntp1131
Rp1132
(dp1133
g14
F-4.91522565732749
sg15
I01
sg16
I70
sg17
I51
sbs(I99
I64
tp1134
g0
(g10
g2
Ntp1135
Rp1136
(dp1137
g14
F-1.0673165847883352
sg15
I01
sg16
I64
sg17
I99
sbs(I170
I134
tp1138
g0
(g10
g2
Ntp1139
Rp1140
(dp1141
g14
F0.7512955545830677
sg15
I01
sg16
I134
sg17
I170
sbs(I56
I74
tp1142
g0
(g10
g2
Ntp1143
Rp1144
(dp1145
g14
F1.185033758025749
sg15
I01
sg16
I74
sg17
I56
sbs(I174
I150
tp1146
g0
(g10
g2
Ntp1147
Rp1148
(dp1149
g14
F-5.120630803035031
sg15
I00
sg16
I150
sg17
I174
sbs(I30
I96
tp1150
g0
(g10
g2
Ntp1151
Rp1152
(dp1153
g14
F-4.21251622777187
sg15
I00
sg16
I96
sg17
I30
sbs(I89
I159
tp1154
g0
(g10
g2
Ntp1155
Rp1156
(dp1157
g14
F1.9806968379519996
sg15
I01
sg16
I159
sg17
I89
sbs(I5
I114
tp1158
g0
(g10
g2
Ntp1159
Rp1160
(dp1161
g14
F-3.906882842384536
sg15
I01
sg16
I114
sg17
I5
sbs(I59
I109
tp1162
g0
(g10
g2
Ntp1163
Rp1164
(dp1165
g14
F-0.8339844547311932
sg15
I00
sg16
I109
sg17
I59
sbs(I89
I129
tp1166
g0
(g10
g2
Ntp1167
Rp1168
(dp1169
g14
F6.30040983764987
sg15
I00
sg16
I129
sg17
I89
sbs(I93
I155
tp1170
g0
(g10
g2
Ntp1171
Rp1172
(dp1173
g14
F-4.465492191467773
sg15
I00
sg16
I155
sg17
I93
sbs(I151
I100
tp1174
g0
(g10
g2
Ntp1175
Rp1176
(dp1177
g14
F-3.2729579665999022
sg15
I01
sg16
I100
sg17
I151
sbs(I87
I69
tp1178
g0
(g10
g2
Ntp1179
Rp1180
(dp1181
g14
F-4.5391556616995405
sg15
I00
sg16
I69
sg17
I87
sbs(I94
I128
tp1182
g0
(g10
g2
Ntp1183
Rp1184
(dp1185
g14
F0.7837947495958694
sg15
I00
sg16
I128
sg17
I94
sbs(I27
I89
tp1186
g0
(g10
g2
Ntp1187
Rp1188
(dp1189
g14
F-2.0237307697654767
sg15
I01
sg16
I89
sg17
I27
sbs(I24
I69
tp1190
g0
(g10
g2
Ntp1191
Rp1192
(dp1193
g14
F-12.102849605995607
sg15
I00
sg16
I69
sg17
I24
sbs(I40
I69
tp1194
g0
(g10
g2
Ntp1195
Rp1196
(dp1197
g14
F-8.876135795790256
sg15
I01
sg16
I69
sg17
I40
sbs(I30
I65
tp1198
g0
(g10
g2
Ntp1199
Rp1200
(dp1201
g14
F-3.893857548161102
sg15
I01
sg16
I65
sg17
I30
sbs(I115
I73
tp1202
g0
(g10
g2
Ntp1203
Rp1204
(dp1205
g14
F-0.7034909546651882
sg15
I01
sg16
I73
sg17
I115
sbs(I76
I91
tp1206
g0
(g10
g2
Ntp1207
Rp1208
(dp1209
g14
F-7.470645573681613
sg15
I00
sg16
I91
sg17
I76
sbs(I7
I65
tp1210
g0
(g10
g2
Ntp1211
Rp1212
(dp1213
g14
F-8.093967906353969
sg15
I01
sg16
I65
sg17
I7
sbs(I89
I69
tp1214
g0
(g10
g2
Ntp1215
Rp1216
(dp1217
g14
F-6.923447759799861
sg15
I00
sg16
I69
sg17
I89
sbs(I118
I65
tp1218
g0
(g10
g2
Ntp1219
Rp1220
(dp1221
g14
F1.823614060100522
sg15
I00
sg16
I65
sg17
I118
sbs(I50
I76
tp1222
g0
(g10
g2
Ntp1223
Rp1224
(dp1225
g14
F-6.0707828811381574
sg15
I00
sg16
I76
sg17
I50
sbs(I46
I171
tp1226
g0
(g10
g2
Ntp1227
Rp1228
(dp1229
g14
F9.295099236363146
sg15
I01
sg16
I171
sg17
I46
sbs(I32
I64
tp1230
g0
(g10
g2
Ntp1231
Rp1232
(dp1233
g14
F-0.7478753370526335
sg15
I00
sg16
I64
sg17
I32
sbs(I49
I98
tp1234
g0
(g10
g2
Ntp1235
Rp1236
(dp1237
g14
F0.7667595009735853
sg15
I01
sg16
I98
sg17
I49
sbs(I48
I64
tp1238
g0
(g10
g2
Ntp1239
Rp1240
(dp1241
g14
F8.778539306408053
sg15
I01
sg16
I64
sg17
I48
sbs(I111
I72
tp1242
g0
(g10
g2
Ntp1243
Rp1244
(dp1245
g14
F-1.1206543351712195
sg15
I00
sg16
I72
sg17
I111
sbs(I6
I70
tp1246
g0
(g10
g2
Ntp1247
Rp1248
(dp1249
g14
F1.405194293161255
sg15
I01
sg16
I70
sg17
I6
sbs(I3
I64
tp1250
g0
(g10
g2
Ntp1251
Rp1252
(dp1253
g14
F-1.0880274609135414
sg15
I01
sg16
I64
sg17
I3
sbs(I140
I95
tp1254
g0
(g10
g2
Ntp1255
Rp1256
(dp1257
g14
F1.3465112064567775
sg15
I01
sg16
I95
sg17
I140
sbs(I55
I64
tp1258
g0
(g10
g2
Ntp1259
Rp1260
(dp1261
g14
F-1.2303138058868508
sg15
I00
sg16
I64
sg17
I55
sbs(I8
I65
tp1262
g0
(g10
g2
Ntp1263
Rp1264
(dp1265
g14
F5.229779177868807
sg15
I00
sg16
I65
sg17
I8
sbs(I21
I65
tp1266
g0
(g10
g2
Ntp1267
Rp1268
(dp1269
g14
F-2.053846189297161
sg15
I00
sg16
I65
sg17
I21
sbs(I159
I69
tp1270
g0
(g10
g2
Ntp1271
Rp1272
(dp1273
g14
F-7.21841061571907
sg15
I01
sg16
I69
sg17
I159
sbs(I71
I94
tp1274
g0
(g10
g2
Ntp1275
Rp1276
(dp1277
g14
F1.917596149403256
sg15
I00
sg16
I94
sg17
I71
sbs(I57
I65
tp1278
g0
(g10
g2
Ntp1279
Rp1280
(dp1281
g14
F0.23442259487011463
sg15
I00
sg16
I65
sg17
I57
sbs(I73
I127
tp1282
g0
(g10
g2
Ntp1283
Rp1284
(dp1285
g14
F0.3042566430128347
sg15
I01
sg16
I127
sg17
I73
sbs(I37
I65
tp1286
g0
(g10
g2
Ntp1287
Rp1288
(dp1289
g14
F5.611876444341126
sg15
I00
sg16
I65
sg17
I37
sbs(I94
I114
tp1290
g0
(g10
g2
Ntp1291
Rp1292
(dp1293
g14
F2.0072564731278195
sg15
I00
sg16
I114
sg17
I94
sbs(I12
I85
tp1294
g0
(g10
g2
Ntp1295
Rp1296
(dp1297
g14
F-2.477585742916157
sg15
I01
sg16
I85
sg17
I12
sbs(I73
I65
tp1298
g0
(g10
g2
Ntp1299
Rp1300
(dp1301
g14
F-6.955161366424582
sg15
I01
sg16
I65
sg17
I73
sbs(I72
I83
tp1302
g0
(g10
g2
Ntp1303
Rp1304
(dp1305
g14
F-7.91855730955403
sg15
I00
sg16
I83
sg17
I72
sbs(I82
I134
tp1306
g0
(g10
g2
Ntp1307
Rp1308
(dp1309
g14
F0.4636875984569654
sg15
I00
sg16
I134
sg17
I82
sbs(I78
I73
tp1310
g0
(g10
g2
Ntp1311
Rp1312
(dp1313
g14
F-1.579846887330923
sg15
I00
sg16
I73
sg17
I78
sbs(I89
I87
tp1314
g0
(g10
g2
Ntp1315
Rp1316
(dp1317
g14
F-3.183579691290415
sg15
I01
sg16
I87
sg17
I89
sbs(I179
I92
tp1318
g0
(g10
g2
Ntp1319
Rp1320
(dp1321
g14
F-1.2001381045569552
sg15
I01
sg16
I92
sg17
I179
sbs(I29
I105
tp1322
g0
(g10
g2
Ntp1323
Rp1324
(dp1325
g14
F13.472304211803904
sg15
I01
sg16
I105
sg17
I29
sbs(I33
I64
tp1326
g0
(g10
g2
Ntp1327
Rp1328
(dp1329
g14
F-8.758335721224874
sg15
I01
sg16
I64
sg17
I33
sbs(I39
I110
tp1330
g0
(g10
g2
Ntp1331
Rp1332
(dp1333
g14
F-4.3637570709222615
sg15
I01
sg16
I110
sg17
I39
sbs(I34
I92
tp1334
g0
(g10
g2
Ntp1335
Rp1336
(dp1337
g14
F-7.1976616605759896
sg15
I01
sg16
I92
sg17
I34
sbs(I148
I67
tp1338
g0
(g10
g2
Ntp1339
Rp1340
(dp1341
g14
F3.24375889870406
sg15
I00
sg16
I67
sg17
I148
sbs(I18
I130
tp1342
g0
(g10
g2
Ntp1343
Rp1344
(dp1345
g14
F-0.8227728550573264
sg15
I01
sg16
I130
sg17
I18
sbs(I63
I100
tp1346
g0
(g10
g2
Ntp1347
Rp1348
(dp1349
g14
F7.291964758013965
sg15
I00
sg16
I100
sg17
I63
sbs(I10
I172
tp1350
g0
(g10
g2
Ntp1351
Rp1352
(dp1353
g14
F0.6892477036713741
sg15
I00
sg16
I172
sg17
I10
sbs(I34
I161
tp1354
g0
(g10
g2
Ntp1355
Rp1356
(dp1357
g14
F3.65908907978633
sg15
I01
sg16
I161
sg17
I34
sbs(I94
I159
tp1358
g0
(g10
g2
Ntp1359
Rp1360
(dp1361
g14
F-0.2904591128809774
sg15
I01
sg16
I159
sg17
I94
sbs(I38
I181
tp1362
g0
(g10
g2
Ntp1363
Rp1364
(dp1365
g14
F0.7757829704228575
sg15
I01
sg16
I181
sg17
I38
sbs(I24
I64
tp1366
g0
(g10
g2
Ntp1367
Rp1368
(dp1369
g14
F2.71701132882669
sg15
I00
sg16
I64
sg17
I24
sbs(I29
I165
tp1370
g0
(g10
g2
Ntp1371
Rp1372
(dp1373
g14
F-1.467212476853868
sg15
I01
sg16
I165
sg17
I29
sbs(I4
I64
tp1374
g0
(g10
g2
Ntp1375
Rp1376
(dp1377
g14
F3.1737482738258036
sg15
I00
sg16
I64
sg17
I4
sbs(I40
I64
tp1378
g0
(g10
g2
Ntp1379
Rp1380
(dp1381
g14
F-4.685751035853207
sg15
I01
sg16
I64
sg17
I40
sbs(I131
I99
tp1382
g0
(g10
g2
Ntp1383
Rp1384
(dp1385
g14
F-4.4530642793534305
sg15
I01
sg16
I99
sg17
I131
sbs(I176
I92
tp1386
g0
(g10
g2
Ntp1387
Rp1388
(dp1389
g14
F5.567012826359703
sg15
I00
sg16
I92
sg17
I176
sbs(I41
I68
tp1390
g0
(g10
g2
Ntp1391
Rp1392
(dp1393
g14
F-6.541984187988695
sg15
I00
sg16
I68
sg17
I41
sbs(I34
I125
tp1394
g0
(g10
g2
Ntp1395
Rp1396
(dp1397
g14
F8.177791211270423
sg15
I00
sg16
I125
sg17
I34
sbs(I145
I65
tp1398
g0
(g10
g2
Ntp1399
Rp1400
(dp1401
g14
F2.1577940706162577
sg15
I01
sg16
I65
sg17
I145
sbs(I38
I113
tp1402
g0
(g10
g2
Ntp1403
Rp1404
(dp1405
g14
F-4.205308443682384
sg15
I00
sg16
I113
sg17
I38
sbs(I39
I79
tp1406
g0
(g10
g2
Ntp1407
Rp1408
(dp1409
g14
F-2.548014397629724
sg15
I00
sg16
I79
sg17
I39
sbs(I0
I65
tp1410
g0
(g10
g2
Ntp1411
Rp1412
(dp1413
g14
F-2.3860157318546946
sg15
I00
sg16
I65
sg17
I0
sbs(I13
I65
tp1414
g0
(g10
g2
Ntp1415
Rp1416
(dp1417
g14
F2.7377278505248213
sg15
I01
sg16
I65
sg17
I13
sbs(I11
I81
tp1418
g0
(g10
g2
Ntp1419
Rp1420
(dp1421
g14
F0.2332110127969704
sg15
I01
sg16
I81
sg17
I11
sbs(I49
I65
tp1422
g0
(g10
g2
Ntp1423
Rp1424
(dp1425
g14
F3.5865749143304386
sg15
I00
sg16
I65
sg17
I49
sbs(I141
I102
tp1426
g0
(g10
g2
Ntp1427
Rp1428
(dp1429
g14
F1.3077116519013754
sg15
I00
sg16
I102
sg17
I141
sbs(I29
I65
tp1430
g0
(g10
g2
Ntp1431
Rp1432
(dp1433
g14
F5.358600533202031
sg15
I01
sg16
I65
sg17
I29
sbs(I27
I113
tp1434
g0
(g10
g2
Ntp1435
Rp1436
(dp1437
g14
F2.8312163476173913
sg15
I00
sg16
I113
sg17
I27
sbs(I88
I65
tp1438
g0
(g10
g2
Ntp1439
Rp1440
(dp1441
g14
F-0.09005888890406227
sg15
I00
sg16
I65
sg17
I88
sbs(I101
I65
tp1442
g0
(g10
g2
Ntp1443
Rp1444
(dp1445
g14
F3.1415520915442654
sg15
I01
sg16
I65
sg17
I101
sbs(I27
I141
tp1446
g0
(g10
g2
Ntp1447
Rp1448
(dp1449
g14
F0.6639977464177733
sg15
I00
sg16
I141
sg17
I27
sbs(I30
I138
tp1450
g0
(g10
g2
Ntp1451
Rp1452
(dp1453
g14
F-5.818166916286097
sg15
I00
sg16
I138
sg17
I30
sbs(I9
I64
tp1454
g0
(g10
g2
Ntp1455
Rp1456
(dp1457
g14
F4.564399290170528
sg15
I01
sg16
I64
sg17
I9
sbs(I89
I178
tp1458
g0
(g10
g2
Ntp1459
Rp1460
(dp1461
g14
F2.303152236163198
sg15
I01
sg16
I178
sg17
I89
sbs(I61
I64
tp1462
g0
(g10
g2
Ntp1463
Rp1464
(dp1465
g14
F-5.544069096340987
sg15
I00
sg16
I64
sg17
I61
sbs(I175
I65
tp1466
g0
(g10
g2
Ntp1467
Rp1468
(dp1469
g14
F-4.800136118299378
sg15
I01
sg16
I65
sg17
I175
sbs(I32
I177
tp1470
g0
(g10
g2
Ntp1471
Rp1472
(dp1473
g14
F-3.0701471400968146
sg15
I01
sg16
I177
sg17
I32
sbs(I25
I64
tp1474
g0
(g10
g2
Ntp1475
Rp1476
(dp1477
g14
F-7.992281028462522
sg15
I00
sg16
I64
sg17
I25
sbs(I72
I139
tp1478
g0
(g10
g2
Ntp1479
Rp1480
(dp1481
g14
F4.2455655853825265
sg15
I01
sg16
I139
sg17
I72
sbs(I167
I83
tp1482
g0
(g10
g2
Ntp1483
Rp1484
(dp1485
g14
F0.9527798357414924
sg15
I00
sg16
I83
sg17
I167
sbs(I16
I64
tp1486
g0
(g10
g2
Ntp1487
Rp1488
(dp1489
g14
F4.1829869312421355
sg15
I01
sg16
I64
sg17
I16
sbs(I61
I133
tp1490
g0
(g10
g2
Ntp1491
Rp1492
(dp1493
g14
F1.797219293827629
sg15
I01
sg16
I133
sg17
I61
sbs(I16
I102
tp1494
g0
(g10
g2
Ntp1495
Rp1496
(dp1497
g14
F-0.09055763306332501
sg15
I01
sg16
I102
sg17
I16
sbs(I30
I151
tp1498
g0
(g10
g2
Ntp1499
Rp1500
(dp1501
g14
F2.028682095439729
sg15
I01
sg16
I151
sg17
I30
sbs(I144
I65
tp1502
g0
(g10
g2
Ntp1503
Rp1504
(dp1505
g14
F3.1348856427237193
sg15
I00
sg16
I65
sg17
I144
sbs(I35
I83
tp1506
g0
(g10
g2
Ntp1507
Rp1508
(dp1509
g14
F-0.7694049242669307
sg15
I00
sg16
I83
sg17
I35
sbs(I54
I134
tp1510
g0
(g10
g2
Ntp1511
Rp1512
(dp1513
g14
F-0.6660643473408233
sg15
I00
sg16
I134
sg17
I54
sbs(I81
I100
tp1514
g0
(g10
g2
Ntp1515
Rp1516
(dp1517
g14
F0.6268263933526137
sg15
I00
sg16
I100
sg17
I81
sbs(I39
I73
tp1518
g0
(g10
g2
Ntp1519
Rp1520
(dp1521
g14
F3.8414317485001153
sg15
I00
sg16
I73
sg17
I39
sbs(I173
I65
tp1522
g0
(g10
g2
Ntp1523
Rp1524
(dp1525
g14
F-3.413175786096197
sg15
I00
sg16
I65
sg17
I173
sbs(I133
I64
tp1526
g0
(g10
g2
Ntp1527
Rp1528
(dp1529
g14
F-6.782281426460256
sg15
I00
sg16
I64
sg17
I133
sbs(I28
I65
tp1530
g0
(g10
g2
Ntp1531
Rp1532
(dp1533
g14
F4.464850720385063
sg15
I01
sg16
I65
sg17
I28
sbs(I26
I113
tp1534
g0
(g10
g2
Ntp1535
Rp1536
(dp1537
g14
F-2.4862102274040097
sg15
I00
sg16
I113
sg17
I26
sbs(I5
I65
tp1538
g0
(g10
g2
Ntp1539
Rp1540
(dp1541
g14
F6.076679452735698
sg15
I01
sg16
I65
sg17
I5
sbs(I15
I65
tp1542
g0
(g10
g2
Ntp1543
Rp1544
(dp1545
g14
F-15.79759412415546
sg15
I00
sg16
I65
sg17
I15
sbs(I30
I91
tp1546
g0
(g10
g2
Ntp1547
Rp1548
(dp1549
g14
F-6.579980787940711
sg15
I01
sg16
I91
sg17
I30
sbs(I44
I65
tp1550
g0
(g10
g2
Ntp1551
Rp1552
(dp1553
g14
F4.373630393336793
sg15
I00
sg16
I65
sg17
I44
sbs(I41
I65
tp1554
g0
(g10
g2
Ntp1555
Rp1556
(dp1557
g14
F-1.5720827994638948
sg15
I01
sg16
I65
sg17
I41
sbs(I12
I147
tp1558
g0
(g10
g2
Ntp1559
Rp1560
(dp1561
g14
F3.2127996204679694
sg15
I00
sg16
I147
sg17
I12
sbs(I93
I65
tp1562
g0
(g10
g2
Ntp1563
Rp1564
(dp1565
g14
F4.204769983119002
sg15
I00
sg16
I65
sg17
I93
sbs(I46
I64
tp1566
g0
(g10
g2
Ntp1567
Rp1568
(dp1569
g14
F2.132893853067527
sg15
I01
sg16
I64
sg17
I46
sbs(I11
I110
tp1570
g0
(g10
g2
Ntp1571
Rp1572
(dp1573
g14
F0.2867264940891929
sg15
I00
sg16
I110
sg17
I11
sbs(I10
I64
tp1574
g0
(g10
g2
Ntp1575
Rp1576
(dp1577
g14
F0.48259725942101395
sg15
I01
sg16
I64
sg17
I10
sbs(I117
I103
tp1578
g0
(g10
g2
Ntp1579
Rp1580
(dp1581
g14
F13.146047748392867
sg15
I01
sg16
I103
sg17
I117
sbssS'parent1_id'
p1582
I70420
sS'num_inputs'
p1583
I64
sS'node_genes'
p1584
(dp1585
I0
g0
(cneat.genes
NodeGene
p1586
g2
Ntp1587
Rp1588
(dp1589
S'activation_type'
p1590
S'sigmoid'
p1591
sS'bias'
p1592
F0.0
sS'type'
p1593
S'INPUT'
p1594
sS'ID'
p1595
I0
sS'response'
p1596
F4.924273
sbsI1
g0
(g1586
g2
Ntp1597
Rp1598
(dp1599
g1590
g1591
sg1592
F0.0
sg1593
g1594
sg1595
I1
sg1596
F4.924273
sbsI2
g0
(g1586
g2
Ntp1600
Rp1601
(dp1602
g1590
g1591
sg1592
F0.0
sg1593
g1594
sg1595
I2
sg1596
F4.924273
sbsI3
g0
(g1586
g2
Ntp1603
Rp1604
(dp1605
g1590
g1591
sg1592
F0.0
sg1593
g1594
sg1595
I3
sg1596
F4.924273
sbsI4
g0
(g1586
g2
Ntp1606
Rp1607
(dp1608
g1590
g1591
sg1592
F0.0
sg1593
g1594
sg1595
I4
sg1596
F4.924273
sbsI5
g0
(g1586
g2
Ntp1609
Rp1610
(dp1611
g1590
g1591
sg1592
F0.0
sg1593
g1594
sg1595
I5
sg1596
F4.924273
sbsI6
g0
(g1586
g2
Ntp1612
Rp1613
(dp1614
g1590
g1591
sg1592
F0.0
sg1593
g1594
sg1595
I6
sg1596
F4.924273
sbsI7
g0
(g1586
g2
Ntp1615
Rp1616
(dp1617
g1590
g1591
sg1592
F0.0
sg1593
g1594
sg1595
I7
sg1596
F4.924273
sbsI8
g0
(g1586
g2
Ntp1618
Rp1619
(dp1620
g1590
g1591
sg1592
F0.0
sg1593
g1594
sg1595
I8
sg1596
F4.924273
sbsI9
g0
(g1586
g2
Ntp1621
Rp1622
(dp1623
g1590
g1591
sg1592
F0.0
sg1593
g1594
sg1595
I9
sg1596
F4.924273
sbsI10
g0
(g1586
g2
Ntp1624
Rp1625
(dp1626
g1590
g1591
sg1592
F0.0
sg1593
g1594
sg1595
I10
sg1596
F4.924273
sbsI11
g0
(g1586
g2
Ntp1627
Rp1628
(dp1629
g1590
g1591
sg1592
F0.0
sg1593
g1594
sg1595
I11
sg1596
F4.924273
sbsI12
g0
(g1586
g2
Ntp1630
Rp1631
(dp1632
g1590
g1591
sg1592
F0.0
sg1593
g1594
sg1595
I12
sg1596
F4.924273
sbsI13
g0
(g1586
g2
Ntp1633
Rp1634
(dp1635
g1590
g1591
sg1592
F0.0
sg1593
g1594
sg1595
I13
sg1596
F4.924273
sbsI14
g0
(g1586
g2
Ntp1636
Rp1637
(dp1638
g1590
g1591
sg1592
F0.0
sg1593
g1594
sg1595
I14
sg1596
F4.924273
sbsI15
g0
(g1586
g2
Ntp1639
Rp1640
(dp1641
g1590
g1591
sg1592
F0.0
sg1593
g1594
sg1595
I15
sg1596
F4.924273
sbsI16
g0
(g1586
g2
Ntp1642
Rp1643
(dp1644
g1590
g1591
sg1592
F0.0
sg1593
g1594
sg1595
I16
sg1596
F4.924273
sbsI17
g0
(g1586
g2
Ntp1645
Rp1646
(dp1647
g1590
g1591
sg1592
F0.0
sg1593
g1594
sg1595
I17
sg1596
F4.924273
sbsI18
g0
(g1586
g2
Ntp1648
Rp1649
(dp1650
g1590
g1591
sg1592
F0.0
sg1593
g1594
sg1595
I18
sg1596
F4.924273
sbsI19
g0
(g1586
g2
Ntp1651
Rp1652
(dp1653
g1590
g1591
sg1592
F0.0
sg1593
g1594
sg1595
I19
sg1596
F4.924273
sbsI20
g0
(g1586
g2
Ntp1654
Rp1655
(dp1656
g1590
g1591
sg1592
F0.0
sg1593
g1594
sg1595
I20
sg1596
F4.924273
sbsI21
g0
(g1586
g2
Ntp1657
Rp1658
(dp1659
g1590
g1591
sg1592
F0.0
sg1593
g1594
sg1595
I21
sg1596
F4.924273
sbsI22
g0
(g1586
g2
Ntp1660
Rp1661
(dp1662
g1590
g1591
sg1592
F0.0
sg1593
g1594
sg1595
I22
sg1596
F4.924273
sbsI23
g0
(g1586
g2
Ntp1663
Rp1664
(dp1665
g1590
g1591
sg1592
F0.0
sg1593
g1594
sg1595
I23
sg1596
F4.924273
sbsI24
g0
(g1586
g2
Ntp1666
Rp1667
(dp1668
g1590
g1591
sg1592
F0.0
sg1593
g1594
sg1595
I24
sg1596
F4.924273
sbsI25
g0
(g1586
g2
Ntp1669
Rp1670
(dp1671
g1590
g1591
sg1592
F0.0
sg1593
g1594
sg1595
I25
sg1596
F4.924273
sbsI26
g0
(g1586
g2
Ntp1672
Rp1673
(dp1674
g1590
g1591
sg1592
F0.0
sg1593
g1594
sg1595
I26
sg1596
F4.924273
sbsI27
g0
(g1586
g2
Ntp1675
Rp1676
(dp1677
g1590
g1591
sg1592
F0.0
sg1593
g1594
sg1595
I27
sg1596
F4.924273
sbsI28
g0
(g1586
g2
Ntp1678
Rp1679
(dp1680
g1590
g1591
sg1592
F0.0
sg1593
g1594
sg1595
I28
sg1596
F4.924273
sbsI29
g0
(g1586
g2
Ntp1681
Rp1682
(dp1683
g1590
g1591
sg1592
F0.0
sg1593
g1594
sg1595
I29
sg1596
F4.924273
sbsI30
g0
(g1586
g2
Ntp1684
Rp1685
(dp1686
g1590
g1591
sg1592
F0.0
sg1593
g1594
sg1595
I30
sg1596
F4.924273
sbsI31
g0
(g1586
g2
Ntp1687
Rp1688
(dp1689
g1590
g1591
sg1592
F0.0
sg1593
g1594
sg1595
I31
sg1596
F4.924273
sbsI32
g0
(g1586
g2
Ntp1690
Rp1691
(dp1692
g1590
g1591
sg1592
F0.0
sg1593
g1594
sg1595
I32
sg1596
F4.924273
sbsI33
g0
(g1586
g2
Ntp1693
Rp1694
(dp1695
g1590
g1591
sg1592
F0.0
sg1593
g1594
sg1595
I33
sg1596
F4.924273
sbsI34
g0
(g1586
g2
Ntp1696
Rp1697
(dp1698
g1590
g1591
sg1592
F0.0
sg1593
g1594
sg1595
I34
sg1596
F4.924273
sbsI35
g0
(g1586
g2
Ntp1699
Rp1700
(dp1701
g1590
g1591
sg1592
F0.0
sg1593
g1594
sg1595
I35
sg1596
F4.924273
sbsI36
g0
(g1586
g2
Ntp1702
Rp1703
(dp1704
g1590
g1591
sg1592
F0.0
sg1593
g1594
sg1595
I36
sg1596
F4.924273
sbsI37
g0
(g1586
g2
Ntp1705
Rp1706
(dp1707
g1590
g1591
sg1592
F0.0
sg1593
g1594
sg1595
I37
sg1596
F4.924273
sbsI38
g0
(g1586
g2
Ntp1708
Rp1709
(dp1710
g1590
g1591
sg1592
F0.0
sg1593
g1594
sg1595
I38
sg1596
F4.924273
sbsI39
g0
(g1586
g2
Ntp1711
Rp1712
(dp1713
g1590
g1591
sg1592
F0.0
sg1593
g1594
sg1595
I39
sg1596
F4.924273
sbsI40
g0
(g1586
g2
Ntp1714
Rp1715
(dp1716
g1590
g1591
sg1592
F0.0
sg1593
g1594
sg1595
I40
sg1596
F4.924273
sbsI41
g0
(g1586
g2
Ntp1717
Rp1718
(dp1719
g1590
g1591
sg1592
F0.0
sg1593
g1594
sg1595
I41
sg1596
F4.924273
sbsI42
g0
(g1586
g2
Ntp1720
Rp1721
(dp1722
g1590
g1591
sg1592
F0.0
sg1593
g1594
sg1595
I42
sg1596
F4.924273
sbsI43
g0
(g1586
g2
Ntp1723
Rp1724
(dp1725
g1590
g1591
sg1592
F0.0
sg1593
g1594
sg1595
I43
sg1596
F4.924273
sbsI44
g0
(g1586
g2
Ntp1726
Rp1727
(dp1728
g1590
g1591
sg1592
F0.0
sg1593
g1594
sg1595
I44
sg1596
F4.924273
sbsI45
g0
(g1586
g2
Ntp1729
Rp1730
(dp1731
g1590
g1591
sg1592
F0.0
sg1593
g1594
sg1595
I45
sg1596
F4.924273
sbsI46
g0
(g1586
g2
Ntp1732
Rp1733
(dp1734
g1590
g1591
sg1592
F0.0
sg1593
g1594
sg1595
I46
sg1596
F4.924273
sbsI47
g0
(g1586
g2
Ntp1735
Rp1736
(dp1737
g1590
g1591
sg1592
F0.0
sg1593
g1594
sg1595
I47
sg1596
F4.924273
sbsI48
g0
(g1586
g2
Ntp1738
Rp1739
(dp1740
g1590
g1591
sg1592
F0.0
sg1593
g1594
sg1595
I48
sg1596
F4.924273
sbsI49
g0
(g1586
g2
Ntp1741
Rp1742
(dp1743
g1590
g1591
sg1592
F0.0
sg1593
g1594
sg1595
I49
sg1596
F4.924273
sbsI50
g0
(g1586
g2
Ntp1744
Rp1745
(dp1746
g1590
g1591
sg1592
F0.0
sg1593
g1594
sg1595
I50
sg1596
F4.924273
sbsI51
g0
(g1586
g2
Ntp1747
Rp1748
(dp1749
g1590
g1591
sg1592
F0.0
sg1593
g1594
sg1595
I51
sg1596
F4.924273
sbsI52
g0
(g1586
g2
Ntp1750
Rp1751
(dp1752
g1590
g1591
sg1592
F0.0
sg1593
g1594
sg1595
I52
sg1596
F4.924273
sbsI53
g0
(g1586
g2
Ntp1753
Rp1754
(dp1755
g1590
g1591
sg1592
F0.0
sg1593
g1594
sg1595
I53
sg1596
F4.924273
sbsI54
g0
(g1586
g2
Ntp1756
Rp1757
(dp1758
g1590
g1591
sg1592
F0.0
sg1593
g1594
sg1595
I54
sg1596
F4.924273
sbsI55
g0
(g1586
g2
Ntp1759
Rp1760
(dp1761
g1590
g1591
sg1592
F0.0
sg1593
g1594
sg1595
I55
sg1596
F4.924273
sbsI56
g0
(g1586
g2
Ntp1762
Rp1763
(dp1764
g1590
g1591
sg1592
F0.0
sg1593
g1594
sg1595
I56
sg1596
F4.924273
sbsI57
g0
(g1586
g2
Ntp1765
Rp1766
(dp1767
g1590
g1591
sg1592
F0.0
sg1593
g1594
sg1595
I57
sg1596
F4.924273
sbsI58
g0
(g1586
g2
Ntp1768
Rp1769
(dp1770
g1590
g1591
sg1592
F0.0
sg1593
g1594
sg1595
I58
sg1596
F4.924273
sbsI59
g0
(g1586
g2
Ntp1771
Rp1772
(dp1773
g1590
g1591
sg1592
F0.0
sg1593
g1594
sg1595
I59
sg1596
F4.924273
sbsI60
g0
(g1586
g2
Ntp1774
Rp1775
(dp1776
g1590
g1591
sg1592
F0.0
sg1593
g1594
sg1595
I60
sg1596
F4.924273
sbsI61
g0
(g1586
g2
Ntp1777
Rp1778
(dp1779
g1590
g1591
sg1592
F0.0
sg1593
g1594
sg1595
I61
sg1596
F4.924273
sbsI62
g0
(g1586
g2
Ntp1780
Rp1781
(dp1782
g1590
g1591
sg1592
F0.0
sg1593
g1594
sg1595
I62
sg1596
F4.924273
sbsI63
g0
(g1586
g2
Ntp1783
Rp1784
(dp1785
g1590
g1591
sg1592
F0.0
sg1593
g1594
sg1595
I63
sg1596
F4.924273
sbsI64
g0
(g1586
g2
Ntp1786
Rp1787
(dp1788
g1590
S'sigmoid'
p1789
sg1592
F0.9146664857033603
sg1593
S'OUTPUT'
p1790
sg1595
I64
sg1596
F-0.29915752155969655
sbsI65
g0
(g1586
g2
Ntp1791
Rp1792
(dp1793
g1590
g1789
sg1592
F11.63422279856291
sg1593
g1790
sg1595
I65
sg1596
F6.2093906319437115
sbsI66
g0
(g1586
g2
Ntp1794
Rp1795
(dp1796
g1590
g1789
sg1592
F-0.9115627657182052
sg1593
S'HIDDEN'
p1797
sg1595
I66
sg1596
F6.8363793891322615
sbsI67
g0
(g1586
g2
Ntp1798
Rp1799
(dp1800
g1590
g1789
sg1592
F7.2772138147235506
sg1593
g1797
sg1595
I67
sg1596
F10.91737689169987
sbsI68
g0
(g1586
g2
Ntp1801
Rp1802
(dp1803
g1590
g1789
sg1592
F-7.2865949352783215
sg1593
g1797
sg1595
I68
sg1596
F7.014119426012198
sbsI69
g0
(g1586
g2
Ntp1804
Rp1805
(dp1806
g1590
g1789
sg1592
F14.085403872646756
sg1593
g1797
sg1595
I69
sg1596
F1.7333397435335047
sbsI70
g0
(g1586
g2
Ntp1807
Rp1808
(dp1809
g1590
g1789
sg1592
F-0.9783386856614045
sg1593
g1797
sg1595
I70
sg1596
F11.225282209019083
sbsI71
g0
(g1586
g2
Ntp1810
Rp1811
(dp1812
g1590
g1789
sg1592
F2.5962834967214685
sg1593
g1797
sg1595
I71
sg1596
F11.473398988547698
sbsI72
g0
(g1586
g2
Ntp1813
Rp1814
(dp1815
g1590
g1789
sg1592
F1.890725926033545
sg1593
g1797
sg1595
I72
sg1596
F-5.493621434977077
sbsI73
g0
(g1586
g2
Ntp1816
Rp1817
(dp1818
g1590
g1789
sg1592
F-8.516991715609658
sg1593
g1797
sg1595
I73
sg1596
F-1.0731577244371993
sbsI74
g0
(g1586
g2
Ntp1819
Rp1820
(dp1821
g1590
g1789
sg1592
F-3.6434691722888664
sg1593
g1797
sg1595
I74
sg1596
F5.070491605738486
sbsI75
g0
(g1586
g2
Ntp1822
Rp1823
(dp1824
g1590
g1789
sg1592
F-5.320578787046443
sg1593
g1797
sg1595
I75
sg1596
F0.06964111794627414
sbsI76
g0
(g1586
g2
Ntp1825
Rp1826
(dp1827
g1590
g1789
sg1592
F1.1827316488060193
sg1593
g1797
sg1595
I76
sg1596
F-7.820278669056838
sbsI77
g0
(g1586
g2
Ntp1828
Rp1829
(dp1830
g1590
g1789
sg1592
F-7.990448622691437
sg1593
g1797
sg1595
I77
sg1596
F2.940422788460134
sbsI78
g0
(g1586
g2
Ntp1831
Rp1832
(dp1833
g1590
g1789
sg1592
F12.69899930383451
sg1593
g1797
sg1595
I78
sg1596
F3.700957101301541
sbsI79
g0
(g1586
g2
Ntp1834
Rp1835
(dp1836
g1590
g1789
sg1592
F-5.585317604655965
sg1593
g1797
sg1595
I79
sg1596
F-0.46390995455810674
sbsI80
g0
(g1586
g2
Ntp1837
Rp1838
(dp1839
g1590
g1789
sg1592
F-6.004303058520551
sg1593
g1797
sg1595
I80
sg1596
F-0.6965739233073961
sbsI81
g0
(g1586
g2
Ntp1840
Rp1841
(dp1842
g1590
g1789
sg1592
F2.872239534251565
sg1593
g1797
sg1595
I81
sg1596
F3.024253883636691
sbsI82
g0
(g1586
g2
Ntp1843
Rp1844
(dp1845
g1590
g1789
sg1592
F-0.3152521077495367
sg1593
g1797
sg1595
I82
sg1596
F3.4477511561553205
sbsI83
g0
(g1586
g2
Ntp1846
Rp1847
(dp1848
g1590
g1789
sg1592
F-1.6878696184233424
sg1593
g1797
sg1595
I83
sg1596
F7.282330067059781
sbsI84
g0
(g1586
g2
Ntp1849
Rp1850
(dp1851
g1590
g1789
sg1592
F-10.66244283345591
sg1593
g1797
sg1595
I84
sg1596
F-0.4123768601368315
sbsI85
g0
(g1586
g2
Ntp1852
Rp1853
(dp1854
g1590
g1789
sg1592
F-2.5439874303216325
sg1593
g1797
sg1595
I85
sg1596
F3.9869436029933123
sbsI86
g0
(g1586
g2
Ntp1855
Rp1856
(dp1857
g1590
g1789
sg1592
F-0.7820538304499993
sg1593
g1797
sg1595
I86
sg1596
F5.005437334601447
sbsI87
g0
(g1586
g2
Ntp1858
Rp1859
(dp1860
g1590
g1789
sg1592
F11.042065974927521
sg1593
g1797
sg1595
I87
sg1596
F4.378395340403331
sbsI88
g0
(g1586
g2
Ntp1861
Rp1862
(dp1863
g1590
g1789
sg1592
F-1.592252387944487
sg1593
g1797
sg1595
I88
sg1596
F14.674568418620332
sbsI89
g0
(g1586
g2
Ntp1864
Rp1865
(dp1866
g1590
g1789
sg1592
F11.21168215087697
sg1593
g1797
sg1595
I89
sg1596
F15.305418598750464
sbsI90
g0
(g1586
g2
Ntp1867
Rp1868
(dp1869
g1590
g1789
sg1592
F-1.4437059350744939
sg1593
g1797
sg1595
I90
sg1596
F3.592604427113371
sbsI91
g0
(g1586
g2
Ntp1870
Rp1871
(dp1872
g1590
g1789
sg1592
F4.529975026924901
sg1593
g1797
sg1595
I91
sg1596
F0.297425356024149
sbsI92
g0
(g1586
g2
Ntp1873
Rp1874
(dp1875
g1590
g1789
sg1592
F-3.165992979727071
sg1593
g1797
sg1595
I92
sg1596
F3.9106613319591963
sbsI93
g0
(g1586
g2
Ntp1876
Rp1877
(dp1878
g1590
g1789
sg1592
F-10.113206830164632
sg1593
g1797
sg1595
I93
sg1596
F6.114506720219087
sbsI94
g0
(g1586
g2
Ntp1879
Rp1880
(dp1881
g1590
g1789
sg1592
F-12.46102661426307
sg1593
g1797
sg1595
I94
sg1596
F1.069773109911839
sbsI95
g0
(g1586
g2
Ntp1882
Rp1883
(dp1884
g1590
g1789
sg1592
F-5.3770091718909905
sg1593
g1797
sg1595
I95
sg1596
F-8.30040716097499
sbsI96
g0
(g1586
g2
Ntp1885
Rp1886
(dp1887
g1590
g1789
sg1592
F9.02632009802641
sg1593
g1797
sg1595
I96
sg1596
F13.735080895795651
sbsI97
g0
(g1586
g2
Ntp1888
Rp1889
(dp1890
g1590
g1789
sg1592
F-6.860280752645859
sg1593
g1797
sg1595
I97
sg1596
F3.8435148374475703
sbsI98
g0
(g1586
g2
Ntp1891
Rp1892
(dp1893
g1590
g1789
sg1592
F-2.993817166461819
sg1593
g1797
sg1595
I98
sg1596
F5.762818770844154
sbsI99
g0
(g1586
g2
Ntp1894
Rp1895
(dp1896
g1590
g1789
sg1592
F-1.9862878582949741
sg1593
g1797
sg1595
I99
sg1596
F13.316795521059733
sbsI100
g0
(g1586
g2
Ntp1897
Rp1898
(dp1899
g1590
g1789
sg1592
F2.4267375744992927
sg1593
g1797
sg1595
I100
sg1596
F-0.7088783581992655
sbsI101
g0
(g1586
g2
Ntp1900
Rp1901
(dp1902
g1590
g1789
sg1592
F6.519109846616097
sg1593
g1797
sg1595
I101
sg1596
F-0.9742781754895784
sbsI102
g0
(g1586
g2
Ntp1903
Rp1904
(dp1905
g1590
g1789
sg1592
F-1.510602640547345
sg1593
g1797
sg1595
I102
sg1596
F5.797623176093699
sbsI103
g0
(g1586
g2
Ntp1906
Rp1907
(dp1908
g1590
g1789
sg1592
F-1.520086038804857
sg1593
g1797
sg1595
I103
sg1596
F14.309763114816038
sbsI104
g0
(g1586
g2
Ntp1909
Rp1910
(dp1911
g1590
g1789
sg1592
F-2.02820536801251
sg1593
g1797
sg1595
I104
sg1596
F-5.903830935580248
sbsI105
g0
(g1586
g2
Ntp1912
Rp1913
(dp1914
g1590
g1789
sg1592
F10.086691178035334
sg1593
g1797
sg1595
I105
sg1596
F18.6355723192332
sbsI106
g0
(g1586
g2
Ntp1915
Rp1916
(dp1917
g1590
g1789
sg1592
F2.857082836314979
sg1593
g1797
sg1595
I106
sg1596
F5.989410515685021
sbsI107
g0
(g1586
g2
Ntp1918
Rp1919
(dp1920
g1590
g1789
sg1592
F13.549967194795487
sg1593
g1797
sg1595
I107
sg1596
F0.1916320074689885
sbsI108
g0
(g1586
g2
Ntp1921
Rp1922
(dp1923
g1590
g1789
sg1592
F1.993739258335749
sg1593
g1797
sg1595
I108
sg1596
F8.932567486014792
sbsI109
g0
(g1586
g2
Ntp1924
Rp1925
(dp1926
g1590
g1789
sg1592
F-2.2691085605532613
sg1593
g1797
sg1595
I109
sg1596
F-0.14165386399434576
sbsI110
g0
(g1586
g2
Ntp1927
Rp1928
(dp1929
g1590
g1789
sg1592
F-5.901410534010252
sg1593
g1797
sg1595
I110
sg1596
F-2.383274893500662
sbsI111
g0
(g1586
g2
Ntp1930
Rp1931
(dp1932
g1590
g1789
sg1592
F-4.073390061319636
sg1593
g1797
sg1595
I111
sg1596
F4.135044053235155
sbsI112
g0
(g1586
g2
Ntp1933
Rp1934
(dp1935
g1590
g1789
sg1592
F-1.4629710081821514
sg1593
g1797
sg1595
I112
sg1596
F6.769295903016817
sbsI113
g0
(g1586
g2
Ntp1936
Rp1937
(dp1938
g1590
g1789
sg1592
F3.4958429847662913
sg1593
g1797
sg1595
I113
sg1596
F12.5298164832951
sbsI114
g0
(g1586
g2
Ntp1939
Rp1940
(dp1941
g1590
g1789
sg1592
F12.316642856096719
sg1593
g1797
sg1595
I114
sg1596
F3.3062083826614637
sbsI115
g0
(g1586
g2
Ntp1942
Rp1943
(dp1944
g1590
g1789
sg1592
F-3.2587913971092473
sg1593
g1797
sg1595
I115
sg1596
F2.1285658165982118
sbsI116
g0
(g1586
g2
Ntp1945
Rp1946
(dp1947
g1590
g1789
sg1592
F-6.396546913187902
sg1593
g1797
sg1595
I116
sg1596
F7.530133153712793
sbsI117
g0
(g1586
g2
Ntp1948
Rp1949
(dp1950
g1590
g1789
sg1592
F0.256018095562314
sg1593
g1797
sg1595
I117
sg1596
F-3.7316138095579787
sbsI118
g0
(g1586
g2
Ntp1951
Rp1952
(dp1953
g1590
g1789
sg1592
F2.3312856859797653
sg1593
g1797
sg1595
I118
sg1596
F4.958223441428985
sbsI119
g0
(g1586
g2
Ntp1954
Rp1955
(dp1956
g1590
g1789
sg1592
F6.191815090184064
sg1593
g1797
sg1595
I119
sg1596
F4.961860293497837
sbsI120
g0
(g1586
g2
Ntp1957
Rp1958
(dp1959
g1590
g1789
sg1592
F11.27924319302946
sg1593
g1797
sg1595
I120
sg1596
F-4.208550787017299
sbsI121
g0
(g1586
g2
Ntp1960
Rp1961
(dp1962
g1590
g1789
sg1592
F-0.4599958095260143
sg1593
g1797
sg1595
I121
sg1596
F8.47220470296952
sbsI122
g0
(g1586
g2
Ntp1963
Rp1964
(dp1965
g1590
g1789
sg1592
F0.19948700059527946
sg1593
g1797
sg1595
I122
sg1596
F2.4622138569318253
sbsI123
g0
(g1586
g2
Ntp1966
Rp1967
(dp1968
g1590
g1789
sg1592
F-2.156379636450079
sg1593
g1797
sg1595
I123
sg1596
F-6.301981157901556
sbsI124
g0
(g1586
g2
Ntp1969
Rp1970
(dp1971
g1590
g1789
sg1592
F1.7696230519259377
sg1593
g1797
sg1595
I124
sg1596
F7.608529606446405
sbsI125
g0
(g1586
g2
Ntp1972
Rp1973
(dp1974
g1590
g1789
sg1592
F7.086425374045361
sg1593
g1797
sg1595
I125
sg1596
F9.110317844399706
sbsI126
g0
(g1586
g2
Ntp1975
Rp1976
(dp1977
g1590
g1789
sg1592
F-9.83665450062973
sg1593
g1797
sg1595
I126
sg1596
F5.1824631843808255
sbsI127
g0
(g1586
g2
Ntp1978
Rp1979
(dp1980
g1590
g1789
sg1592
F-0.38154052870836197
sg1593
g1797
sg1595
I127
sg1596
F10.983930114466153
sbsI128
g0
(g1586
g2
Ntp1981
Rp1982
(dp1983
g1590
g1789
sg1592
F-0.5057470631588805
sg1593
g1797
sg1595
I128
sg1596
F1.3724190389503328
sbsI129
g0
(g1586
g2
Ntp1984
Rp1985
(dp1986
g1590
g1789
sg1592
F-9.798746971063688
sg1593
g1797
sg1595
I129
sg1596
F4.830723348367021
sbsI130
g0
(g1586
g2
Ntp1987
Rp1988
(dp1989
g1590
g1789
sg1592
F0.12914683320819206
sg1593
g1797
sg1595
I130
sg1596
F3.692777518231892
sbsI131
g0
(g1586
g2
Ntp1990
Rp1991
(dp1992
g1590
g1789
sg1592
F-2.3246218908856258
sg1593
g1797
sg1595
I131
sg1596
F-7.2903261204682686
sbsI132
g0
(g1586
g2
Ntp1993
Rp1994
(dp1995
g1590
g1789
sg1592
F-2.9023771945866548
sg1593
g1797
sg1595
I132
sg1596
F3.1867928562762478
sbsI133
g0
(g1586
g2
Ntp1996
Rp1997
(dp1998
g1590
g1789
sg1592
F-2.16721514477786
sg1593
g1797
sg1595
I133
sg1596
F11.156639225009943
sbsI134
g0
(g1586
g2
Ntp1999
Rp2000
(dp2001
g1590
g1789
sg1592
F-9.308783059406634
sg1593
g1797
sg1595
I134
sg1596
F7.90610512766471
sbsI135
g0
(g1586
g2
Ntp2002
Rp2003
(dp2004
g1590
g1789
sg1592
F0.4723428227399004
sg1593
g1797
sg1595
I135
sg1596
F1.2151310513716704
sbsI136
g0
(g1586
g2
Ntp2005
Rp2006
(dp2007
g1590
g1789
sg1592
F1.1191583721932281
sg1593
g1797
sg1595
I136
sg1596
F11.240062237243777
sbsI137
g0
(g1586
g2
Ntp2008
Rp2009
(dp2010
g1590
g1789
sg1592
F1.3947863172998582
sg1593
g1797
sg1595
I137
sg1596
F3.5515548168707864
sbsI138
g0
(g1586
g2
Ntp2011
Rp2012
(dp2013
g1590
g1789
sg1592
F-2.9355723085811336
sg1593
g1797
sg1595
I138
sg1596
F5.632097773100129
sbsI139
g0
(g1586
g2
Ntp2014
Rp2015
(dp2016
g1590
g1789
sg1592
F-0.48269342044551655
sg1593
g1797
sg1595
I139
sg1596
F8.977178800706376
sbsI140
g0
(g1586
g2
Ntp2017
Rp2018
(dp2019
g1590
g1789
sg1592
F6.88974114140349
sg1593
g1797
sg1595
I140
sg1596
F7.039407309749855
sbsI141
g0
(g1586
g2
Ntp2020
Rp2021
(dp2022
g1590
g1789
sg1592
F3.903218486665419
sg1593
g1797
sg1595
I141
sg1596
F-2.274028698161568
sbsI142
g0
(g1586
g2
Ntp2023
Rp2024
(dp2025
g1590
g1789
sg1592
F3.363298924775557
sg1593
g1797
sg1595
I142
sg1596
F3.399380510425204
sbsI143
g0
(g1586
g2
Ntp2026
Rp2027
(dp2028
g1590
g1789
sg1592
F2.9896207358467235
sg1593
g1797
sg1595
I143
sg1596
F4.18614194908929
sbsI144
g0
(g1586
g2
Ntp2029
Rp2030
(dp2031
g1590
g1789
sg1592
F-6.2351971305699205
sg1593
g1797
sg1595
I144
sg1596
F8.84003803838725
sbsI145
g0
(g1586
g2
Ntp2032
Rp2033
(dp2034
g1590
g1789
sg1592
F5.43825787606941
sg1593
g1797
sg1595
I145
sg1596
F-0.6223257525992991
sbsI146
g0
(g1586
g2
Ntp2035
Rp2036
(dp2037
g1590
g1789
sg1592
F2.6437003321761714
sg1593
g1797
sg1595
I146
sg1596
F0.3884858629068265
sbsI147
g0
(g1586
g2
Ntp2038
Rp2039
(dp2040
g1590
g1789
sg1592
F0.9242639374125083
sg1593
g1797
sg1595
I147
sg1596
F2.4891855883414893
sbsI148
g0
(g1586
g2
Ntp2041
Rp2042
(dp2043
g1590
g1789
sg1592
F2.370214790046596
sg1593
g1797
sg1595
I148
sg1596
F4.411716229601278
sbsI149
g0
(g1586
g2
Ntp2044
Rp2045
(dp2046
g1590
g1789
sg1592
F-0.7226502420786942
sg1593
g1797
sg1595
I149
sg1596
F1.5492367807124585
sbsI150
g0
(g1586
g2
Ntp2047
Rp2048
(dp2049
g1590
g1789
sg1592
F-0.8008407731020041
sg1593
g1797
sg1595
I150
sg1596
F1.1539699655560183
sbsI151
g0
(g1586
g2
Ntp2050
Rp2051
(dp2052
g1590
g1789
sg1592
F2.2910411714400007
sg1593
g1797
sg1595
I151
sg1596
F6.593465755228859
sbsI152
g0
(g1586
g2
Ntp2053
Rp2054
(dp2055
g1590
g1789
sg1592
F-4.084359465784816
sg1593
g1797
sg1595
I152
sg1596
F4.9055844450303745
sbsI153
g0
(g1586
g2
Ntp2056
Rp2057
(dp2058
g1590
g1789
sg1592
F-0.47393822741392844
sg1593
g1797
sg1595
I153
sg1596
F6.389982592069228
sbsI154
g0
(g1586
g2
Ntp2059
Rp2060
(dp2061
g1590
g1789
sg1592
F7.144224422380356
sg1593
g1797
sg1595
I154
sg1596
F3.9022751452219486
sbsI155
g0
(g1586
g2
Ntp2062
Rp2063
(dp2064
g1590
g1789
sg1592
F9.15981465973643
sg1593
g1797
sg1595
I155
sg1596
F1.1206425627667835
sbsI156
g0
(g1586
g2
Ntp2065
Rp2066
(dp2067
g1590
g1789
sg1592
F-0.7181883109479426
sg1593
g1797
sg1595
I156
sg1596
F9.657853448566001
sbsI157
g0
(g1586
g2
Ntp2068
Rp2069
(dp2070
g1590
g1789
sg1592
F-0.5157771293979623
sg1593
g1797
sg1595
I157
sg1596
F5.375519204610537
sbsI158
g0
(g1586
g2
Ntp2071
Rp2072
(dp2073
g1590
g1789
sg1592
F2.738095096084981
sg1593
g1797
sg1595
I158
sg1596
F5.176573358416734
sbsI159
g0
(g1586
g2
Ntp2074
Rp2075
(dp2076
g1590
g1789
sg1592
F0.9999382999046309
sg1593
g1797
sg1595
I159
sg1596
F5.525502172393906
sbsI160
g0
(g1586
g2
Ntp2077
Rp2078
(dp2079
g1590
g1789
sg1592
F1.7988732296338381
sg1593
g1797
sg1595
I160
sg1596
F6.321063621850585
sbsI161
g0
(g1586
g2
Ntp2080
Rp2081
(dp2082
g1590
g1789
sg1592
F-6.933441260828167
sg1593
g1797
sg1595
I161
sg1596
F6.696980910672723
sbsI162
g0
(g1586
g2
Ntp2083
Rp2084
(dp2085
g1590
g1789
sg1592
F1.719006001954365
sg1593
g1797
sg1595
I162
sg1596
F-1.7171426206917269
sbsI163
g0
(g1586
g2
Ntp2086
Rp2087
(dp2088
g1590
g1789
sg1592
F0.9552803465472636
sg1593
g1797
sg1595
I163
sg1596
F4.439395396214786
sbsI164
g0
(g1586
g2
Ntp2089
Rp2090
(dp2091
g1590
g1789
sg1592
F-0.020572072451395473
sg1593
g1797
sg1595
I164
sg1596
F1.968850449678273
sbsI165
g0
(g1586
g2
Ntp2092
Rp2093
(dp2094
g1590
g1789
sg1592
F1.604883454301112
sg1593
g1797
sg1595
I165
sg1596
F6.631308336229813
sbsI166
g0
(g1586
g2
Ntp2095
Rp2096
(dp2097
g1590
g1789
sg1592
F2.652425121650859
sg1593
g1797
sg1595
I166
sg1596
F3.3122148295262526
sbsI167
g0
(g1586
g2
Ntp2098
Rp2099
(dp2100
g1590
g1789
sg1592
F0.48343567751141303
sg1593
g1797
sg1595
I167
sg1596
F3.762881367086756
sbsI168
g0
(g1586
g2
Ntp2101
Rp2102
(dp2103
g1590
g1789
sg1592
F-1.7018911950727498
sg1593
g1797
sg1595
I168
sg1596
F4.271678646181238
sbsI169
g0
(g1586
g2
Ntp2104
Rp2105
(dp2106
g1590
g1789
sg1592
F-3.5489869251588524
sg1593
g1797
sg1595
I169
sg1596
F5.163442749819615
sbsI170
g0
(g1586
g2
Ntp2107
Rp2108
(dp2109
g1590
g1789
sg1592
F-3.193116379150462
sg1593
g1797
sg1595
I170
sg1596
F2.206014349519797
sbsI171
g0
(g1586
g2
Ntp2110
Rp2111
(dp2112
g1590
g1789
sg1592
F-1.8891748757550553
sg1593
g1797
sg1595
I171
sg1596
F3.0613126819491963
sbsI172
g0
(g1586
g2
Ntp2113
Rp2114
(dp2115
g1590
g1789
sg1592
F2.2310676694257654
sg1593
g1797
sg1595
I172
sg1596
F7.424473037383718
sbsI173
g0
(g1586
g2
Ntp2116
Rp2117
(dp2118
g1590
g1789
sg1592
F0.3860373415682107
sg1593
g1797
sg1595
I173
sg1596
F5.407636756641155
sbsI174
g0
(g1586
g2
Ntp2119
Rp2120
(dp2121
g1590
g1789
sg1592
F-2.743119452255792
sg1593
g1797
sg1595
I174
sg1596
F6.067887059876336
sbsI175
g0
(g1586
g2
Ntp2122
Rp2123
(dp2124
g1590
g1789
sg1592
F-0.503805973797139
sg1593
g1797
sg1595
I175
sg1596
F5.495827020817938
sbsI176
g0
(g1586
g2
Ntp2125
Rp2126
(dp2127
g1590
g1789
sg1592
F-0.17106358641880104
sg1593
g1797
sg1595
I176
sg1596
F6.2840150126249
sbsI177
g0
(g1586
g2
Ntp2128
Rp2129
(dp2130
g1590
g1789
sg1592
F1.1067854864852338
sg1593
g1797
sg1595
I177
sg1596
F7.3009742878237205
sbsI178
g0
(g1586
g2
Ntp2131
Rp2132
(dp2133
g1590
g1789
sg1592
F-2.7837864294597123
sg1593
g1797
sg1595
I178
sg1596
F5.882674198455106
sbsI179
g0
(g1586
g2
Ntp2134
Rp2135
(dp2136
g1590
g1789
sg1592
F0.1272387618605576
sg1593
g1797
sg1595
I179
sg1596
F4.473119383340777
sbsI180
g0
(g1586
g2
Ntp2137
Rp2138
(dp2139
g1590
g1789
sg1592
F1.155874593985912
sg1593
g1797
sg1595
I180
sg1596
F5.118968914726599
sbsI181
g0
(g1586
g2
Ntp2140
Rp2141
(dp2142
g1590
g1789
sg1592
F-1.3851304089485634
sg1593
g1797
sg1595
I181
sg1596
F5.546859885185062
sbsI182
g0
(g1586
g2
Ntp2143
Rp2144
(dp2145
g1590
g1789
sg1592
F-0.6776863272659416
sg1593
g1797
sg1595
I182
sg1596
F5.823064096352067
sbssS'node_order'
p2146
(lp2147
I142
aI86
aI143
aI132
aI123
aI169
aI181
aI111
aI136
aI130
aI140
aI71
aI166
aI89
aI178
aI165
aI104
aI149
aI160
aI171
aI161
aI87
aI94
aI172
aI80
aI77
aI128
aI96
aI159
aI153
aI69
aI174
aI168
aI177
aI137
aI114
aI126
aI145
aI150
aI176
aI141
aI72
aI121
aI179
aI156
aI92
aI125
aI113
aI78
aI147
aI139
aI151
aI82
aI158
aI101
aI119
aI117
aI103
aI85
aI88
aI95
aI98
aI75
aI167
aI170
aI144
aI162
aI74
aI105
aI83
aI110
aI90
aI182
aI115
aI154
aI106
aI124
aI163
aI81
aI129
aI131
aI116
aI100
aI118
aI164
aI76
aI70
aI99
aI112
aI109
aI146
aI157
aI107
aI73
aI152
aI91
aI93
aI108
aI155
aI133
aI148
aI66
aI180
aI68
aI67
aI173
aI84
aI79
aI127
aI97
aI138
aI122
aI175
aI134
aI135
aI120
aI102
asS'num_outputs'
p2148
I2
sS'fitness'
p2149
I360
sS'parent2_id'
p2150
I70419
sS'config'
p2151
g0
(cneat.config
Config
p2152
g2
Ntp2153
Rp2154
(dp2155
S'weight_stdev'
p2156
F5.0
sS'disjoint_coefficient'
p2157
F1.0
sS'prob_delete_node'
p2158
F0.125
sS'initial_connection'
p2159
S'fully_connected'
p2160
sS'stagnation_type'
p2161
cneat.stagnation
DefaultStagnation
p2162
sS'weight_mutation_power'
p2163
F0.5
sS'excess_coefficient'
p2164
F1.0
sS'compatibility_threshold'
p2165
F3.0
sS'pop_size'
p2166
I150
sS'weight_coefficient'
p2167
F0.5
sS'feedforward'
p2168
I01
sS'prob_add_node'
p2169
F0.5
sS'genotype'
p2170
g1
sS'type_config'
p2171
(dp2172
S'DefaultStagnation'
p2173
(lp2174
(S'species_fitness_func'
p2175
S'mean'
p2176
tp2177
a(S'max_stagnation'
p2178
S'8'
p2179
tp2180
asS'DefaultReproduction'
p2181
(lp2182
(S'elitism'
p2183
S'2'
p2184
tp2185
a(S'survival_threshold'
p2186
S'0.2'
p2187
tp2188
assS'prob_mutate_activation'
p2189
F0.02
sS'conn_gene_type'
p2190
g10
sS'connection_fraction'
p2191
NsS'activation_functions'
p2192
(lp2193
g1789
asS'save_best'
p2194
I00
sS'response_mutation_power'
p2195
F0.5
sS'prob_add_conn'
p2196
F0.5
sS'checkpoint_time_interval'
p2197
NsS'checkpoint_gen_interval'
p2198
NsS'prob_mutate_bias'
p2199
F0.9
sS'reproduction_type'
p2200
cneat.reproduction
DefaultReproduction
p2201
sS'node_gene_type'
p2202
g1586
sS'output_nodes'
p2203
I2
sS'input_nodes'
p2204
I64
sS'prob_replace_weight'
p2205
F0.1
sS'registry'
p2206
(dp2207
S'DefaultStagnation'
p2208
g2162
sS'DefaultReproduction'
p2209
g2201
ssS'hidden_nodes'
p2210
I0
sS'report'
p2211
I00
sS'prob_mutate_response'
p2212
F0.8
sS'collect_statistics'
p2213
I01
sS'max_weight'
p2214
F50.0
sS'prob_toggle_link'
p2215
F0.01
sS'min_weight'
p2216
F-50.0
sS'max_fitness_threshold'
p2217
F100000.0
sS'bias_mutation_power'
p2218
F0.5
sS'prob_delete_conn'
p2219
F0.125
sS'reset_on_extinction'
p2220
I01
sS'prob_mutate_weight'
p2221
F0.8
sbsg1595
I70544
sb.