ccopy_reg
_reconstructor
p0
(cneat.genome
FFGenome
p1
c__builtin__
object
p2
Ntp3
Rp4
(dp5
S'species_id'
p6
I145
sS'conn_genes'
p7
(dp8
(I30
I65
tp9
g0
(cneat.genes
ConnectionGene
p10
g2
Ntp11
Rp12
(dp13
S'weight'
p14
F-5.503419895428993
sS'enabled'
p15
I00
sS'out_node_id'
p16
I65
sS'in_node_id'
p17
I30
sbs(I62
I64
tp18
g0
(g10
g2
Ntp19
Rp20
(dp21
g14
F-3.9330805018374604
sg15
I00
sg16
I64
sg17
I62
sbs(I7
I65
tp22
g0
(g10
g2
Ntp23
Rp24
(dp25
g14
F-3.4082600866491677
sg15
I00
sg16
I65
sg17
I7
sbs(I20
I65
tp26
g0
(g10
g2
Ntp27
Rp28
(dp29
g14
F2.601872415557567
sg15
I01
sg16
I65
sg17
I20
sbs(I66
I65
tp30
g0
(g10
g2
Ntp31
Rp32
(dp33
g14
F2.3520700172343023
sg15
I01
sg16
I65
sg17
I66
sbs(I43
I65
tp34
g0
(g10
g2
Ntp35
Rp36
(dp37
g14
F2.272808942976162
sg15
I01
sg16
I65
sg17
I43
sbs(I56
I65
tp38
g0
(g10
g2
Ntp39
Rp40
(dp41
g14
F0.23882733347965823
sg15
I00
sg16
I65
sg17
I56
sbs(I1
I64
tp42
g0
(g10
g2
Ntp43
Rp44
(dp45
g14
F1.3881461238524153
sg15
I01
sg16
I64
sg17
I1
sbs(I33
I65
tp46
g0
(g10
g2
Ntp47
Rp48
(dp49
g14
F-0.9025866702184808
sg15
I01
sg16
I65
sg17
I33
sbs(I10
I69
tp50
g0
(g10
g2
Ntp51
Rp52
(dp53
g14
F-1.1390659288942868
sg15
I01
sg16
I69
sg17
I10
sbs(I32
I64
tp54
g0
(g10
g2
Ntp55
Rp56
(dp57
g14
F-4.495908287059303
sg15
I01
sg16
I64
sg17
I32
sbs(I53
I64
tp58
g0
(g10
g2
Ntp59
Rp60
(dp61
g14
F0.543152816180362
sg15
I01
sg16
I64
sg17
I53
sbs(I12
I64
tp62
g0
(g10
g2
Ntp63
Rp64
(dp65
g14
F-0.6266089527988605
sg15
I01
sg16
I64
sg17
I12
sbs(I9
I66
tp66
g0
(g10
g2
Ntp67
Rp68
(dp69
g14
F6.207235994206079
sg15
I00
sg16
I66
sg17
I9
sbs(I17
I64
tp70
g0
(g10
g2
Ntp71
Rp72
(dp73
g14
F-13.626162322986744
sg15
I01
sg16
I64
sg17
I17
sbs(I16
I65
tp74
g0
(g10
g2
Ntp75
Rp76
(dp77
g14
F-9.031289574448426
sg15
I00
sg16
I65
sg17
I16
sbs(I48
I64
tp78
g0
(g10
g2
Ntp79
Rp80
(dp81
g14
F-8.519626471300963
sg15
I00
sg16
I64
sg17
I48
sbs(I22
I65
tp82
g0
(g10
g2
Ntp83
Rp84
(dp85
g14
F-0.6654880954133396
sg15
I01
sg16
I65
sg17
I22
sbs(I19
I65
tp86
g0
(g10
g2
Ntp87
Rp88
(dp89
g14
F-2.238734264976537
sg15
I01
sg16
I65
sg17
I19
sbs(I68
I65
tp90
g0
(g10
g2
Ntp91
Rp92
(dp93
g14
F3.6962271855943545
sg15
I01
sg16
I65
sg17
I68
sbs(I45
I65
tp94
g0
(g10
g2
Ntp95
Rp96
(dp97
g14
F1.8867409535040678
sg15
I01
sg16
I65
sg17
I45
sbs(I58
I65
tp98
g0
(g10
g2
Ntp99
Rp100
(dp101
g14
F-1.271694567695357
sg15
I00
sg16
I65
sg17
I58
sbs(I3
I64
tp102
g0
(g10
g2
Ntp103
Rp104
(dp105
g14
F4.056857792104381
sg15
I01
sg16
I64
sg17
I3
sbs(I35
I65
tp106
g0
(g10
g2
Ntp107
Rp108
(dp109
g14
F0.6681996047423099
sg15
I01
sg16
I65
sg17
I35
sbs(I34
I64
tp110
g0
(g10
g2
Ntp111
Rp112
(dp113
g14
F2.3337787028718817
sg15
I01
sg16
I64
sg17
I34
sbs(I55
I64
tp114
g0
(g10
g2
Ntp115
Rp116
(dp117
g14
F6.466191043219216
sg15
I01
sg16
I64
sg17
I55
sbs(I14
I64
tp118
g0
(g10
g2
Ntp119
Rp120
(dp121
g14
F-3.0549346592730067
sg15
I00
sg16
I64
sg17
I14
sbs(I18
I65
tp122
g0
(g10
g2
Ntp123
Rp124
(dp125
g14
F-1.0905646035266148
sg15
I01
sg16
I65
sg17
I18
sbs(I50
I64
tp126
g0
(g10
g2
Ntp127
Rp128
(dp129
g14
F-2.1149200713858445
sg15
I01
sg16
I64
sg17
I50
sbs(I22
I66
tp130
g0
(g10
g2
Ntp131
Rp132
(dp133
g14
F-4.340856828028294
sg15
I00
sg16
I66
sg17
I22
sbs(I8
I65
tp134
g0
(g10
g2
Ntp135
Rp136
(dp137
g14
F-13.444662508807156
sg15
I01
sg16
I65
sg17
I8
sbs(I21
I65
tp138
g0
(g10
g2
Ntp139
Rp140
(dp141
g14
F-6.440562611532531
sg15
I00
sg16
I65
sg17
I21
sbs(I60
I65
tp142
g0
(g10
g2
Ntp143
Rp144
(dp145
g14
F-1.5487607928874618
sg15
I01
sg16
I65
sg17
I60
sbs(I57
I65
tp146
g0
(g10
g2
Ntp147
Rp148
(dp149
g14
F-4.544849391145045
sg15
I01
sg16
I65
sg17
I57
sbs(I5
I64
tp150
g0
(g10
g2
Ntp151
Rp152
(dp153
g14
F-1.3091499412463012
sg15
I00
sg16
I64
sg17
I5
sbs(I37
I65
tp154
g0
(g10
g2
Ntp155
Rp156
(dp157
g14
F-3.6412716740867253
sg15
I01
sg16
I65
sg17
I37
sbs(I42
I67
tp158
g0
(g10
g2
Ntp159
Rp160
(dp161
g14
F-3.7686207035938684
sg15
I01
sg16
I67
sg17
I42
sbs(I36
I64
tp162
g0
(g10
g2
Ntp163
Rp164
(dp165
g14
F-5.249061813653728
sg15
I01
sg16
I64
sg17
I36
sbs(I41
I64
tp166
g0
(g10
g2
Ntp167
Rp168
(dp169
g14
F3.3848338950628962
sg15
I01
sg16
I64
sg17
I41
sbs(I0
I64
tp170
g0
(g10
g2
Ntp171
Rp172
(dp173
g14
F6.097757147979373
sg15
I01
sg16
I64
sg17
I0
sbs(I18
I66
tp174
g0
(g10
g2
Ntp175
Rp176
(dp177
g14
F8.739021624336674
sg15
I01
sg16
I66
sg17
I18
sbs(I47
I64
tp178
g0
(g10
g2
Ntp179
Rp180
(dp181
g14
F-10.837281009781183
sg15
I00
sg16
I64
sg17
I47
sbs(I52
I64
tp182
g0
(g10
g2
Ntp183
Rp184
(dp185
g14
F-2.1064083630796677
sg15
I01
sg16
I64
sg17
I52
sbs(I46
I65
tp186
g0
(g10
g2
Ntp187
Rp188
(dp189
g14
F7.440624381428155
sg15
I00
sg16
I65
sg17
I46
sbs(I29
I66
tp190
g0
(g10
g2
Ntp191
Rp192
(dp193
g14
F0.6438734825361694
sg15
I00
sg16
I66
sg17
I29
sbs(I10
I65
tp194
g0
(g10
g2
Ntp195
Rp196
(dp197
g14
F9.987665777564391
sg15
I00
sg16
I65
sg17
I10
sbs(I23
I65
tp198
g0
(g10
g2
Ntp199
Rp200
(dp201
g14
F5.8515677764208665
sg15
I01
sg16
I65
sg17
I23
sbs(I62
I65
tp202
g0
(g10
g2
Ntp203
Rp204
(dp205
g14
F1.6309255619979897
sg15
I01
sg16
I65
sg17
I62
sbs(I59
I65
tp206
g0
(g10
g2
Ntp207
Rp208
(dp209
g14
F-3.3599311114511963
sg15
I00
sg16
I65
sg17
I59
sbs(I7
I64
tp210
g0
(g10
g2
Ntp211
Rp212
(dp213
g14
F-1.370573435251384
sg15
I01
sg16
I64
sg17
I7
sbs(I39
I65
tp214
g0
(g10
g2
Ntp215
Rp216
(dp217
g14
F3.2906238889962625
sg15
I01
sg16
I65
sg17
I39
sbs(I38
I64
tp218
g0
(g10
g2
Ntp219
Rp220
(dp221
g14
F-4.266855466708096
sg15
I01
sg16
I64
sg17
I38
sbs(I43
I64
tp222
g0
(g10
g2
Ntp223
Rp224
(dp225
g14
F5.1554372513372595
sg15
I01
sg16
I64
sg17
I43
sbs(I2
I64
tp226
g0
(g10
g2
Ntp227
Rp228
(dp229
g14
F1.276839350150532
sg15
I00
sg16
I64
sg17
I2
sbs(I33
I64
tp230
g0
(g10
g2
Ntp231
Rp232
(dp233
g14
F11.009213391453951
sg15
I00
sg16
I64
sg17
I33
sbs(I54
I64
tp234
g0
(g10
g2
Ntp235
Rp236
(dp237
g14
F-3.8782509251622725
sg15
I01
sg16
I64
sg17
I54
sbs(I32
I65
tp238
g0
(g10
g2
Ntp239
Rp240
(dp241
g14
F9.476237180537876
sg15
I01
sg16
I65
sg17
I32
sbs(I12
I65
tp242
g0
(g10
g2
Ntp243
Rp244
(dp245
g14
F7.513536688480918
sg15
I01
sg16
I65
sg17
I12
sbs(I9
I65
tp246
g0
(g10
g2
Ntp247
Rp248
(dp249
g14
F-4.484853276206664
sg15
I01
sg16
I65
sg17
I9
sbs(I30
I67
tp250
g0
(g10
g2
Ntp251
Rp252
(dp253
g14
F-1.1925922119401362
sg15
I01
sg16
I67
sg17
I30
sbs(I48
I65
tp254
g0
(g10
g2
Ntp255
Rp256
(dp257
g14
F6.79317095802739
sg15
I01
sg16
I65
sg17
I48
sbs(I61
I65
tp258
g0
(g10
g2
Ntp259
Rp260
(dp261
g14
F-0.32270144546525725
sg15
I01
sg16
I65
sg17
I61
sbs(I25
I65
tp262
g0
(g10
g2
Ntp263
Rp264
(dp265
g14
F-7.819079722063617
sg15
I01
sg16
I65
sg17
I25
sbs(I19
I64
tp266
g0
(g10
g2
Ntp267
Rp268
(dp269
g14
F1.6370561236974832
sg15
I01
sg16
I64
sg17
I19
sbs(I24
I64
tp270
g0
(g10
g2
Ntp271
Rp272
(dp273
g14
F-3.1117620023802584
sg15
I00
sg16
I64
sg17
I24
sbs(I45
I64
tp274
g0
(g10
g2
Ntp275
Rp276
(dp277
g14
F-6.308022412376739
sg15
I01
sg16
I64
sg17
I45
sbs(I4
I64
tp278
g0
(g10
g2
Ntp279
Rp280
(dp281
g14
F4.63292938557581
sg15
I01
sg16
I64
sg17
I4
sbs(I35
I64
tp282
g0
(g10
g2
Ntp283
Rp284
(dp285
g14
F-2.270673431640441
sg15
I00
sg16
I64
sg17
I35
sbs(I40
I64
tp286
g0
(g10
g2
Ntp287
Rp288
(dp289
g14
F-3.6691416989282026
sg15
I00
sg16
I64
sg17
I40
sbs(I34
I65
tp290
g0
(g10
g2
Ntp291
Rp292
(dp293
g14
F0.5820430618743656
sg15
I01
sg16
I65
sg17
I34
sbs(I14
I65
tp294
g0
(g10
g2
Ntp295
Rp296
(dp297
g14
F-7.700051790069887
sg15
I00
sg16
I65
sg17
I14
sbs(I11
I65
tp298
g0
(g10
g2
Ntp299
Rp300
(dp301
g14
F-1.049452469799328
sg15
I01
sg16
I65
sg17
I11
sbs(I50
I65
tp302
g0
(g10
g2
Ntp303
Rp304
(dp305
g14
F-2.75098502543087
sg15
I01
sg16
I65
sg17
I50
sbs(I63
I65
tp306
g0
(g10
g2
Ntp307
Rp308
(dp309
g14
F7.684998914654932
sg15
I01
sg16
I65
sg17
I63
sbs(I27
I65
tp310
g0
(g10
g2
Ntp311
Rp312
(dp313
g14
F-0.32520877206010224
sg15
I01
sg16
I65
sg17
I27
sbs(I21
I64
tp314
g0
(g10
g2
Ntp315
Rp316
(dp317
g14
F-0.299010259568792
sg15
I00
sg16
I64
sg17
I21
sbs(I26
I64
tp318
g0
(g10
g2
Ntp319
Rp320
(dp321
g14
F-0.37373305214669017
sg15
I01
sg16
I64
sg17
I26
sbs(I6
I64
tp322
g0
(g10
g2
Ntp323
Rp324
(dp325
g14
F-1.0851256297907725
sg15
I01
sg16
I64
sg17
I6
sbs(I57
I64
tp326
g0
(g10
g2
Ntp327
Rp328
(dp329
g14
F-5.955102411225956
sg15
I00
sg16
I64
sg17
I57
sbs(I37
I64
tp330
g0
(g10
g2
Ntp331
Rp332
(dp333
g14
F0.8415666857010606
sg15
I01
sg16
I64
sg17
I37
sbs(I42
I64
tp334
g0
(g10
g2
Ntp335
Rp336
(dp337
g14
F3.6998229106880762
sg15
I01
sg16
I64
sg17
I42
sbs(I36
I65
tp338
g0
(g10
g2
Ntp339
Rp340
(dp341
g14
F0.03177181843198573
sg15
I01
sg16
I65
sg17
I36
sbs(I0
I65
tp342
g0
(g10
g2
Ntp343
Rp344
(dp345
g14
F-0.44440737754230286
sg15
I01
sg16
I65
sg17
I0
sbs(I13
I65
tp346
g0
(g10
g2
Ntp347
Rp348
(dp349
g14
F-8.063192064376892
sg15
I00
sg16
I65
sg17
I13
sbs(I52
I65
tp350
g0
(g10
g2
Ntp351
Rp352
(dp353
g14
F-8.211999128589312
sg15
I01
sg16
I65
sg17
I52
sbs(I49
I65
tp354
g0
(g10
g2
Ntp355
Rp356
(dp357
g14
F-0.3962380141022488
sg15
I01
sg16
I65
sg17
I49
sbs(I29
I65
tp358
g0
(g10
g2
Ntp359
Rp360
(dp361
g14
F0.48299773812674884
sg15
I01
sg16
I65
sg17
I29
sbs(I23
I64
tp362
g0
(g10
g2
Ntp363
Rp364
(dp365
g14
F2.735828467142759
sg15
I01
sg16
I64
sg17
I23
sbs(I28
I64
tp366
g0
(g10
g2
Ntp367
Rp368
(dp369
g14
F-0.05089723826378889
sg15
I00
sg16
I64
sg17
I28
sbs(I59
I64
tp370
g0
(g10
g2
Ntp371
Rp372
(dp373
g14
F-2.662695391714488
sg15
I01
sg16
I64
sg17
I59
sbs(I39
I64
tp374
g0
(g10
g2
Ntp375
Rp376
(dp377
g14
F0.4682107171898864
sg15
I01
sg16
I64
sg17
I39
sbs(I44
I64
tp378
g0
(g10
g2
Ntp379
Rp380
(dp381
g14
F5.821630232184323
sg15
I01
sg16
I64
sg17
I44
sbs(I38
I65
tp382
g0
(g10
g2
Ntp383
Rp384
(dp385
g14
F-2.371444417784091
sg15
I01
sg16
I65
sg17
I38
sbs(I2
I65
tp386
g0
(g10
g2
Ntp387
Rp388
(dp389
g14
F7.676320839123188
sg15
I00
sg16
I65
sg17
I2
sbs(I15
I65
tp390
g0
(g10
g2
Ntp391
Rp392
(dp393
g14
F0.43897695608084053
sg15
I01
sg16
I65
sg17
I15
sbs(I54
I65
tp394
g0
(g10
g2
Ntp395
Rp396
(dp397
g14
F-7.6637731803297715
sg15
I01
sg16
I65
sg17
I54
sbs(I51
I65
tp398
g0
(g10
g2
Ntp399
Rp400
(dp401
g14
F-6.0828166874006335
sg15
I01
sg16
I65
sg17
I51
sbs(I31
I65
tp402
g0
(g10
g2
Ntp403
Rp404
(dp405
g14
F8.600106748731967
sg15
I01
sg16
I65
sg17
I31
sbs(I12
I66
tp406
g0
(g10
g2
Ntp407
Rp408
(dp409
g14
F8.602277257954945
sg15
I00
sg16
I66
sg17
I12
sbs(I9
I64
tp410
g0
(g10
g2
Ntp411
Rp412
(dp413
g14
F-4.951959479490977
sg15
I00
sg16
I64
sg17
I9
sbs(I30
I64
tp414
g0
(g10
g2
Ntp415
Rp416
(dp417
g14
F4.49108139054223
sg15
I01
sg16
I64
sg17
I30
sbs(I67
I65
tp418
g0
(g10
g2
Ntp419
Rp420
(dp421
g14
F0.30680745126227343
sg15
I01
sg16
I65
sg17
I67
sbs(I48
I66
tp422
g0
(g10
g2
Ntp423
Rp424
(dp425
g14
F-1.3506286414482354
sg15
I01
sg16
I66
sg17
I48
sbs(I61
I64
tp426
g0
(g10
g2
Ntp427
Rp428
(dp429
g14
F-2.029594063985308
sg15
I00
sg16
I64
sg17
I61
sbs(I20
I64
tp430
g0
(g10
g2
Ntp431
Rp432
(dp433
g14
F-4.109623557368063
sg15
I01
sg16
I64
sg17
I20
sbs(I25
I64
tp434
g0
(g10
g2
Ntp435
Rp436
(dp437
g14
F15.198230320845164
sg15
I01
sg16
I64
sg17
I25
sbs(I24
I65
tp438
g0
(g10
g2
Ntp439
Rp440
(dp441
g14
F5.2439635426291575
sg15
I01
sg16
I65
sg17
I24
sbs(I56
I64
tp442
g0
(g10
g2
Ntp443
Rp444
(dp445
g14
F0.5344818984754978
sg15
I01
sg16
I64
sg17
I56
sbs(I4
I65
tp446
g0
(g10
g2
Ntp447
Rp448
(dp449
g14
F4.922775350099363
sg15
I01
sg16
I65
sg17
I4
sbs(I1
I65
tp450
g0
(g10
g2
Ntp451
Rp452
(dp453
g14
F7.907302594581881
sg15
I01
sg16
I65
sg17
I1
sbs(I40
I65
tp454
g0
(g10
g2
Ntp455
Rp456
(dp457
g14
F7.668446243341029
sg15
I00
sg16
I65
sg17
I40
sbs(I53
I65
tp458
g0
(g10
g2
Ntp459
Rp460
(dp461
g14
F4.830873957128352
sg15
I00
sg16
I65
sg17
I53
sbs(I17
I65
tp462
g0
(g10
g2
Ntp463
Rp464
(dp465
g14
F-2.658802069091126
sg15
I01
sg16
I65
sg17
I17
sbs(I11
I64
tp466
g0
(g10
g2
Ntp467
Rp468
(dp469
g14
F-3.5886905652808054
sg15
I01
sg16
I64
sg17
I11
sbs(I16
I64
tp470
g0
(g10
g2
Ntp471
Rp472
(dp473
g14
F-0.2930555608050376
sg15
I01
sg16
I64
sg17
I16
sbs(I69
I65
tp474
g0
(g10
g2
Ntp475
Rp476
(dp477
g14
F10.531468604598846
sg15
I01
sg16
I65
sg17
I69
sbs(I63
I64
tp478
g0
(g10
g2
Ntp479
Rp480
(dp481
g14
F1.530047000450906
sg15
I00
sg16
I64
sg17
I63
sbs(I22
I64
tp482
g0
(g10
g2
Ntp483
Rp484
(dp485
g14
F-2.6006241465449276
sg15
I01
sg16
I64
sg17
I22
sbs(I27
I64
tp486
g0
(g10
g2
Ntp487
Rp488
(dp489
g14
F-2.848432892947673
sg15
I00
sg16
I64
sg17
I27
sbs(I26
I65
tp490
g0
(g10
g2
Ntp491
Rp492
(dp493
g14
F-4.243677073183567
sg15
I01
sg16
I65
sg17
I26
sbs(I58
I64
tp494
g0
(g10
g2
Ntp495
Rp496
(dp497
g14
F-1.5360815775995815
sg15
I01
sg16
I64
sg17
I58
sbs(I6
I65
tp498
g0
(g10
g2
Ntp499
Rp500
(dp501
g14
F-1.4217782041566007
sg15
I01
sg16
I65
sg17
I6
sbs(I3
I65
tp502
g0
(g10
g2
Ntp503
Rp504
(dp505
g14
F0.16202407845165667
sg15
I01
sg16
I65
sg17
I3
sbs(I53
I68
tp506
g0
(g10
g2
Ntp507
Rp508
(dp509
g14
F-0.9573974878075655
sg15
I01
sg16
I68
sg17
I53
sbs(I42
I65
tp510
g0
(g10
g2
Ntp511
Rp512
(dp513
g14
F9.403694087734607
sg15
I01
sg16
I65
sg17
I42
sbs(I55
I65
tp514
g0
(g10
g2
Ntp515
Rp516
(dp517
g14
F4.740863579944912
sg15
I01
sg16
I65
sg17
I55
sbs(I13
I64
tp518
g0
(g10
g2
Ntp519
Rp520
(dp521
g14
F-0.04491907477580925
sg15
I00
sg16
I64
sg17
I13
sbs(I18
I64
tp522
g0
(g10
g2
Ntp523
Rp524
(dp525
g14
F-3.5835893190420376
sg15
I01
sg16
I64
sg17
I18
sbs(I49
I64
tp526
g0
(g10
g2
Ntp527
Rp528
(dp529
g14
F-1.0072164309183442
sg15
I00
sg16
I64
sg17
I49
sbs(I8
I64
tp530
g0
(g10
g2
Ntp531
Rp532
(dp533
g14
F2.225888526950395
sg15
I01
sg16
I64
sg17
I8
sbs(I29
I64
tp534
g0
(g10
g2
Ntp535
Rp536
(dp537
g14
F0.9049196650628466
sg15
I01
sg16
I64
sg17
I29
sbs(I28
I65
tp538
g0
(g10
g2
Ntp539
Rp540
(dp541
g14
F-0.9980088169591281
sg15
I01
sg16
I65
sg17
I28
sbs(I60
I64
tp542
g0
(g10
g2
Ntp543
Rp544
(dp545
g14
F-1.0468181130881498
sg15
I01
sg16
I64
sg17
I60
sbs(I5
I65
tp546
g0
(g10
g2
Ntp547
Rp548
(dp549
g14
F5.198000920426276
sg15
I01
sg16
I65
sg17
I5
sbs(I7
I66
tp550
g0
(g10
g2
Ntp551
Rp552
(dp553
g14
F3.2839974664910043
sg15
I00
sg16
I66
sg17
I7
sbs(I44
I65
tp554
g0
(g10
g2
Ntp555
Rp556
(dp557
g14
F0.3872001140770946
sg15
I01
sg16
I65
sg17
I44
sbs(I41
I65
tp558
g0
(g10
g2
Ntp559
Rp560
(dp561
g14
F0.16665293279476157
sg15
I00
sg16
I65
sg17
I41
sbs(I15
I64
tp562
g0
(g10
g2
Ntp563
Rp564
(dp565
g14
F9.166597657419617
sg15
I01
sg16
I64
sg17
I15
sbs(I47
I65
tp566
g0
(g10
g2
Ntp567
Rp568
(dp569
g14
F0.4861820537107671
sg15
I01
sg16
I65
sg17
I47
sbs(I46
I64
tp570
g0
(g10
g2
Ntp571
Rp572
(dp573
g14
F-4.448027194222405
sg15
I01
sg16
I64
sg17
I46
sbs(I51
I64
tp574
g0
(g10
g2
Ntp575
Rp576
(dp577
g14
F-9.099464947736411
sg15
I00
sg16
I64
sg17
I51
sbs(I10
I64
tp578
g0
(g10
g2
Ntp579
Rp580
(dp581
g14
F-9.652424410326184
sg15
I01
sg16
I64
sg17
I10
sbs(I31
I64
tp582
g0
(g10
g2
Ntp583
Rp584
(dp585
g14
F1.1634449274691685
sg15
I00
sg16
I64
sg17
I31
sbssS'parent1_id'
p586
I1164
sS'num_inputs'
p587
I64
sS'node_genes'
p588
(dp589
I0
g0
(cneat.genes
NodeGene
p590
g2
Ntp591
Rp592
(dp593
S'activation_type'
p594
S'sigmoid'
p595
sS'bias'
p596
F0.0
sS'type'
p597
S'INPUT'
p598
sS'ID'
p599
I0
sS'response'
p600
F4.924273
sbsI1
g0
(g590
g2
Ntp601
Rp602
(dp603
g594
g595
sg596
F0.0
sg597
g598
sg599
I1
sg600
F4.924273
sbsI2
g0
(g590
g2
Ntp604
Rp605
(dp606
g594
g595
sg596
F0.0
sg597
g598
sg599
I2
sg600
F4.924273
sbsI3
g0
(g590
g2
Ntp607
Rp608
(dp609
g594
g595
sg596
F0.0
sg597
g598
sg599
I3
sg600
F4.924273
sbsI4
g0
(g590
g2
Ntp610
Rp611
(dp612
g594
g595
sg596
F0.0
sg597
g598
sg599
I4
sg600
F4.924273
sbsI5
g0
(g590
g2
Ntp613
Rp614
(dp615
g594
g595
sg596
F0.0
sg597
g598
sg599
I5
sg600
F4.924273
sbsI6
g0
(g590
g2
Ntp616
Rp617
(dp618
g594
g595
sg596
F0.0
sg597
g598
sg599
I6
sg600
F4.924273
sbsI7
g0
(g590
g2
Ntp619
Rp620
(dp621
g594
g595
sg596
F0.0
sg597
g598
sg599
I7
sg600
F4.924273
sbsI8
g0
(g590
g2
Ntp622
Rp623
(dp624
g594
g595
sg596
F0.0
sg597
g598
sg599
I8
sg600
F4.924273
sbsI9
g0
(g590
g2
Ntp625
Rp626
(dp627
g594
g595
sg596
F0.0
sg597
g598
sg599
I9
sg600
F4.924273
sbsI10
g0
(g590
g2
Ntp628
Rp629
(dp630
g594
g595
sg596
F0.0
sg597
g598
sg599
I10
sg600
F4.924273
sbsI11
g0
(g590
g2
Ntp631
Rp632
(dp633
g594
g595
sg596
F0.0
sg597
g598
sg599
I11
sg600
F4.924273
sbsI12
g0
(g590
g2
Ntp634
Rp635
(dp636
g594
g595
sg596
F0.0
sg597
g598
sg599
I12
sg600
F4.924273
sbsI13
g0
(g590
g2
Ntp637
Rp638
(dp639
g594
g595
sg596
F0.0
sg597
g598
sg599
I13
sg600
F4.924273
sbsI14
g0
(g590
g2
Ntp640
Rp641
(dp642
g594
g595
sg596
F0.0
sg597
g598
sg599
I14
sg600
F4.924273
sbsI15
g0
(g590
g2
Ntp643
Rp644
(dp645
g594
g595
sg596
F0.0
sg597
g598
sg599
I15
sg600
F4.924273
sbsI16
g0
(g590
g2
Ntp646
Rp647
(dp648
g594
g595
sg596
F0.0
sg597
g598
sg599
I16
sg600
F4.924273
sbsI17
g0
(g590
g2
Ntp649
Rp650
(dp651
g594
g595
sg596
F0.0
sg597
g598
sg599
I17
sg600
F4.924273
sbsI18
g0
(g590
g2
Ntp652
Rp653
(dp654
g594
g595
sg596
F0.0
sg597
g598
sg599
I18
sg600
F4.924273
sbsI19
g0
(g590
g2
Ntp655
Rp656
(dp657
g594
g595
sg596
F0.0
sg597
g598
sg599
I19
sg600
F4.924273
sbsI20
g0
(g590
g2
Ntp658
Rp659
(dp660
g594
g595
sg596
F0.0
sg597
g598
sg599
I20
sg600
F4.924273
sbsI21
g0
(g590
g2
Ntp661
Rp662
(dp663
g594
g595
sg596
F0.0
sg597
g598
sg599
I21
sg600
F4.924273
sbsI22
g0
(g590
g2
Ntp664
Rp665
(dp666
g594
g595
sg596
F0.0
sg597
g598
sg599
I22
sg600
F4.924273
sbsI23
g0
(g590
g2
Ntp667
Rp668
(dp669
g594
g595
sg596
F0.0
sg597
g598
sg599
I23
sg600
F4.924273
sbsI24
g0
(g590
g2
Ntp670
Rp671
(dp672
g594
g595
sg596
F0.0
sg597
g598
sg599
I24
sg600
F4.924273
sbsI25
g0
(g590
g2
Ntp673
Rp674
(dp675
g594
g595
sg596
F0.0
sg597
g598
sg599
I25
sg600
F4.924273
sbsI26
g0
(g590
g2
Ntp676
Rp677
(dp678
g594
g595
sg596
F0.0
sg597
g598
sg599
I26
sg600
F4.924273
sbsI27
g0
(g590
g2
Ntp679
Rp680
(dp681
g594
g595
sg596
F0.0
sg597
g598
sg599
I27
sg600
F4.924273
sbsI28
g0
(g590
g2
Ntp682
Rp683
(dp684
g594
g595
sg596
F0.0
sg597
g598
sg599
I28
sg600
F4.924273
sbsI29
g0
(g590
g2
Ntp685
Rp686
(dp687
g594
g595
sg596
F0.0
sg597
g598
sg599
I29
sg600
F4.924273
sbsI30
g0
(g590
g2
Ntp688
Rp689
(dp690
g594
g595
sg596
F0.0
sg597
g598
sg599
I30
sg600
F4.924273
sbsI31
g0
(g590
g2
Ntp691
Rp692
(dp693
g594
g595
sg596
F0.0
sg597
g598
sg599
I31
sg600
F4.924273
sbsI32
g0
(g590
g2
Ntp694
Rp695
(dp696
g594
g595
sg596
F0.0
sg597
g598
sg599
I32
sg600
F4.924273
sbsI33
g0
(g590
g2
Ntp697
Rp698
(dp699
g594
g595
sg596
F0.0
sg597
g598
sg599
I33
sg600
F4.924273
sbsI34
g0
(g590
g2
Ntp700
Rp701
(dp702
g594
g595
sg596
F0.0
sg597
g598
sg599
I34
sg600
F4.924273
sbsI35
g0
(g590
g2
Ntp703
Rp704
(dp705
g594
g595
sg596
F0.0
sg597
g598
sg599
I35
sg600
F4.924273
sbsI36
g0
(g590
g2
Ntp706
Rp707
(dp708
g594
g595
sg596
F0.0
sg597
g598
sg599
I36
sg600
F4.924273
sbsI37
g0
(g590
g2
Ntp709
Rp710
(dp711
g594
g595
sg596
F0.0
sg597
g598
sg599
I37
sg600
F4.924273
sbsI38
g0
(g590
g2
Ntp712
Rp713
(dp714
g594
g595
sg596
F0.0
sg597
g598
sg599
I38
sg600
F4.924273
sbsI39
g0
(g590
g2
Ntp715
Rp716
(dp717
g594
g595
sg596
F0.0
sg597
g598
sg599
I39
sg600
F4.924273
sbsI40
g0
(g590
g2
Ntp718
Rp719
(dp720
g594
g595
sg596
F0.0
sg597
g598
sg599
I40
sg600
F4.924273
sbsI41
g0
(g590
g2
Ntp721
Rp722
(dp723
g594
g595
sg596
F0.0
sg597
g598
sg599
I41
sg600
F4.924273
sbsI42
g0
(g590
g2
Ntp724
Rp725
(dp726
g594
g595
sg596
F0.0
sg597
g598
sg599
I42
sg600
F4.924273
sbsI43
g0
(g590
g2
Ntp727
Rp728
(dp729
g594
g595
sg596
F0.0
sg597
g598
sg599
I43
sg600
F4.924273
sbsI44
g0
(g590
g2
Ntp730
Rp731
(dp732
g594
g595
sg596
F0.0
sg597
g598
sg599
I44
sg600
F4.924273
sbsI45
g0
(g590
g2
Ntp733
Rp734
(dp735
g594
g595
sg596
F0.0
sg597
g598
sg599
I45
sg600
F4.924273
sbsI46
g0
(g590
g2
Ntp736
Rp737
(dp738
g594
g595
sg596
F0.0
sg597
g598
sg599
I46
sg600
F4.924273
sbsI47
g0
(g590
g2
Ntp739
Rp740
(dp741
g594
g595
sg596
F0.0
sg597
g598
sg599
I47
sg600
F4.924273
sbsI48
g0
(g590
g2
Ntp742
Rp743
(dp744
g594
g595
sg596
F0.0
sg597
g598
sg599
I48
sg600
F4.924273
sbsI49
g0
(g590
g2
Ntp745
Rp746
(dp747
g594
g595
sg596
F0.0
sg597
g598
sg599
I49
sg600
F4.924273
sbsI50
g0
(g590
g2
Ntp748
Rp749
(dp750
g594
g595
sg596
F0.0
sg597
g598
sg599
I50
sg600
F4.924273
sbsI51
g0
(g590
g2
Ntp751
Rp752
(dp753
g594
g595
sg596
F0.0
sg597
g598
sg599
I51
sg600
F4.924273
sbsI52
g0
(g590
g2
Ntp754
Rp755
(dp756
g594
g595
sg596
F0.0
sg597
g598
sg599
I52
sg600
F4.924273
sbsI53
g0
(g590
g2
Ntp757
Rp758
(dp759
g594
g595
sg596
F0.0
sg597
g598
sg599
I53
sg600
F4.924273
sbsI54
g0
(g590
g2
Ntp760
Rp761
(dp762
g594
g595
sg596
F0.0
sg597
g598
sg599
I54
sg600
F4.924273
sbsI55
g0
(g590
g2
Ntp763
Rp764
(dp765
g594
g595
sg596
F0.0
sg597
g598
sg599
I55
sg600
F4.924273
sbsI56
g0
(g590
g2
Ntp766
Rp767
(dp768
g594
g595
sg596
F0.0
sg597
g598
sg599
I56
sg600
F4.924273
sbsI57
g0
(g590
g2
Ntp769
Rp770
(dp771
g594
g595
sg596
F0.0
sg597
g598
sg599
I57
sg600
F4.924273
sbsI58
g0
(g590
g2
Ntp772
Rp773
(dp774
g594
g595
sg596
F0.0
sg597
g598
sg599
I58
sg600
F4.924273
sbsI59
g0
(g590
g2
Ntp775
Rp776
(dp777
g594
g595
sg596
F0.0
sg597
g598
sg599
I59
sg600
F4.924273
sbsI60
g0
(g590
g2
Ntp778
Rp779
(dp780
g594
g595
sg596
F0.0
sg597
g598
sg599
I60
sg600
F4.924273
sbsI61
g0
(g590
g2
Ntp781
Rp782
(dp783
g594
g595
sg596
F0.0
sg597
g598
sg599
I61
sg600
F4.924273
sbsI62
g0
(g590
g2
Ntp784
Rp785
(dp786
g594
g595
sg596
F0.0
sg597
g598
sg599
I62
sg600
F4.924273
sbsI63
g0
(g590
g2
Ntp787
Rp788
(dp789
g594
g595
sg596
F0.0
sg597
g598
sg599
I63
sg600
F4.924273
sbsI64
g0
(g590
g2
Ntp790
Rp791
(dp792
g594
S'sigmoid'
p793
sg596
F-1.1507417389817565
sg597
S'OUTPUT'
p794
sg599
I64
sg600
F4.604749861439457
sbsI65
g0
(g590
g2
Ntp795
Rp796
(dp797
g594
g793
sg596
F3.155253050057552
sg597
g794
sg599
I65
sg600
F7.498069567728548
sbsI66
g0
(g590
g2
Ntp798
Rp799
(dp800
g594
g793
sg596
F-5.180259098794961
sg597
S'HIDDEN'
p801
sg599
I66
sg600
F6.436413404301966
sbsI67
g0
(g590
g2
Ntp802
Rp803
(dp804
g594
g793
sg596
F3.688361630601139
sg597
g801
sg599
I67
sg600
F7.263882524846887
sbsI68
g0
(g590
g2
Ntp805
Rp806
(dp807
g594
g793
sg596
F0.8594071135613667
sg597
g801
sg599
I68
sg600
F5.032397880138444
sbsI69
g0
(g590
g2
Ntp808
Rp809
(dp810
g594
g793
sg596
F1.1355038662003936
sg597
g801
sg599
I69
sg600
F4.924273
sbssS'node_order'
p811
(lp812
I68
aI66
aI69
aI67
asS'num_outputs'
p813
I2
sS'fitness'
p814
I300
sS'parent2_id'
p815
I1164
sS'config'
p816
g0
(cneat.config
Config
p817
g2
Ntp818
Rp819
(dp820
S'weight_stdev'
p821
F1.0
sS'disjoint_coefficient'
p822
F1.0
sS'prob_delete_node'
p823
F0.05
sS'initial_connection'
p824
S'fully_connected'
p825
sS'stagnation_type'
p826
cneat.stagnation
DefaultStagnation
p827
sS'weight_mutation_power'
p828
F2.0
sS'excess_coefficient'
p829
F1.0
sS'compatibility_threshold'
p830
F0.7
sS'pop_size'
p831
I100
sS'weight_coefficient'
p832
F0.3
sS'feedforward'
p833
I01
sS'prob_add_node'
p834
F0.2
sS'genotype'
p835
g1
sS'type_config'
p836
(dp837
S'DefaultStagnation'
p838
(lp839
(S'species_fitness_func'
p840
S'mean'
p841
tp842
a(S'max_stagnation'
p843
S'15'
p844
tp845
asS'DefaultReproduction'
p846
(lp847
(S'elitism'
p848
S'1'
p849
tp850
a(S'survival_threshold'
p851
S'0.2'
p852
tp853
assS'prob_mutate_activation'
p854
F0.1
sS'conn_gene_type'
p855
g10
sS'connection_fraction'
p856
NsS'activation_functions'
p857
(lp858
g793
asS'save_best'
p859
I00
sS'response_mutation_power'
p860
F0.5
sS'prob_add_conn'
p861
F0.7
sS'checkpoint_time_interval'
p862
NsS'checkpoint_gen_interval'
p863
NsS'prob_mutate_bias'
p864
F0.8
sS'reproduction_type'
p865
cneat.reproduction
DefaultReproduction
p866
sS'node_gene_type'
p867
g590
sS'output_nodes'
p868
I2
sS'input_nodes'
p869
I64
sS'prob_replace_weight'
p870
F0.1
sS'registry'
p871
(dp872
S'DefaultStagnation'
p873
g827
sS'DefaultReproduction'
p874
g866
ssS'hidden_nodes'
p875
I0
sS'report'
p876
I01
sS'prob_mutate_response'
p877
F0.5
sS'collect_statistics'
p878
I01
sS'max_weight'
p879
F50.0
sS'prob_toggle_link'
p880
F0.02
sS'min_weight'
p881
F-50.0
sS'max_fitness_threshold'
p882
F100000.0
sS'bias_mutation_power'
p883
F1.0
sS'prob_delete_conn'
p884
F0.1
sS'reset_on_extinction'
p885
I01
sS'prob_mutate_weight'
p886
F0.6
sbsg599
I1169
sb.