ccopy_reg
_reconstructor
p0
(cneat.genome
FFGenome
p1
c__builtin__
object
p2
Ntp3
Rp4
(dp5
S'species_id'
p6
I98
sS'conn_genes'
p7
(dp8
(I30
I65
tp9
g0
(cneat.genes
ConnectionGene
p10
g2
Ntp11
Rp12
(dp13
S'weight'
p14
F-2.373965829808361
sS'enabled'
p15
I01
sS'out_node_id'
p16
I65
sS'in_node_id'
p17
I30
sbs(I62
I64
tp18
g0
(g10
g2
Ntp19
Rp20
(dp21
g14
F3.3733929060603787
sg15
I00
sg16
I64
sg17
I62
sbs(I7
I65
tp22
g0
(g10
g2
Ntp23
Rp24
(dp25
g14
F-3.4786929414508885
sg15
I01
sg16
I65
sg17
I7
sbs(I20
I65
tp26
g0
(g10
g2
Ntp27
Rp28
(dp29
g14
F1.0734647305066498
sg15
I01
sg16
I65
sg17
I20
sbs(I66
I65
tp30
g0
(g10
g2
Ntp31
Rp32
(dp33
g14
F-6.707614490074357
sg15
I01
sg16
I65
sg17
I66
sbs(I43
I65
tp34
g0
(g10
g2
Ntp35
Rp36
(dp37
g14
F8.630278810633662
sg15
I01
sg16
I65
sg17
I43
sbs(I56
I65
tp38
g0
(g10
g2
Ntp39
Rp40
(dp41
g14
F1.3767012949079582
sg15
I00
sg16
I65
sg17
I56
sbs(I1
I64
tp42
g0
(g10
g2
Ntp43
Rp44
(dp45
g14
F3.051810611616185
sg15
I00
sg16
I64
sg17
I1
sbs(I33
I65
tp46
g0
(g10
g2
Ntp47
Rp48
(dp49
g14
F-0.5242731917054307
sg15
I01
sg16
I65
sg17
I33
sbs(I32
I64
tp50
g0
(g10
g2
Ntp51
Rp52
(dp53
g14
F3.2115508988897443
sg15
I01
sg16
I64
sg17
I32
sbs(I53
I64
tp54
g0
(g10
g2
Ntp55
Rp56
(dp57
g14
F-1.2509938956724707
sg15
I00
sg16
I64
sg17
I53
sbs(I12
I64
tp58
g0
(g10
g2
Ntp59
Rp60
(dp61
g14
F-1.8274935483856747
sg15
I01
sg16
I64
sg17
I12
sbs(I17
I64
tp62
g0
(g10
g2
Ntp63
Rp64
(dp65
g14
F-7.603827233386675
sg15
I00
sg16
I64
sg17
I17
sbs(I16
I65
tp66
g0
(g10
g2
Ntp67
Rp68
(dp69
g14
F-0.4116079170338594
sg15
I01
sg16
I65
sg17
I16
sbs(I48
I64
tp70
g0
(g10
g2
Ntp71
Rp72
(dp73
g14
F9.253274483327557
sg15
I01
sg16
I64
sg17
I48
sbs(I22
I65
tp74
g0
(g10
g2
Ntp75
Rp76
(dp77
g14
F1.09913292896361
sg15
I01
sg16
I65
sg17
I22
sbs(I19
I65
tp78
g0
(g10
g2
Ntp79
Rp80
(dp81
g14
F1.806241393494367
sg15
I01
sg16
I65
sg17
I19
sbs(I45
I65
tp82
g0
(g10
g2
Ntp83
Rp84
(dp85
g14
F-5.464079727808304
sg15
I01
sg16
I65
sg17
I45
sbs(I1
I67
tp86
g0
(g10
g2
Ntp87
Rp88
(dp89
g14
F3.7621662721169438
sg15
I01
sg16
I67
sg17
I1
sbs(I58
I65
tp90
g0
(g10
g2
Ntp91
Rp92
(dp93
g14
F-4.7610653634864235
sg15
I01
sg16
I65
sg17
I58
sbs(I3
I64
tp94
g0
(g10
g2
Ntp95
Rp96
(dp97
g14
F5.128577427541448
sg15
I01
sg16
I64
sg17
I3
sbs(I35
I65
tp98
g0
(g10
g2
Ntp99
Rp100
(dp101
g14
F0.166478244879531
sg15
I01
sg16
I65
sg17
I35
sbs(I34
I64
tp102
g0
(g10
g2
Ntp103
Rp104
(dp105
g14
F-0.7273491306871545
sg15
I01
sg16
I64
sg17
I34
sbs(I55
I64
tp106
g0
(g10
g2
Ntp107
Rp108
(dp109
g14
F-0.7702143451239472
sg15
I00
sg16
I64
sg17
I55
sbs(I14
I64
tp110
g0
(g10
g2
Ntp111
Rp112
(dp113
g14
F1.5023905271940883
sg15
I01
sg16
I64
sg17
I14
sbs(I18
I65
tp114
g0
(g10
g2
Ntp115
Rp116
(dp117
g14
F-6.644399844265295
sg15
I01
sg16
I65
sg17
I18
sbs(I50
I64
tp118
g0
(g10
g2
Ntp119
Rp120
(dp121
g14
F-1.2215335718436087
sg15
I01
sg16
I64
sg17
I50
sbs(I8
I65
tp122
g0
(g10
g2
Ntp123
Rp124
(dp125
g14
F-3.5724939935158755
sg15
I00
sg16
I65
sg17
I8
sbs(I21
I65
tp126
g0
(g10
g2
Ntp127
Rp128
(dp129
g14
F1.9575162236762613
sg15
I01
sg16
I65
sg17
I21
sbs(I60
I65
tp130
g0
(g10
g2
Ntp131
Rp132
(dp133
g14
F0.3291543487329751
sg15
I01
sg16
I65
sg17
I60
sbs(I57
I65
tp134
g0
(g10
g2
Ntp135
Rp136
(dp137
g14
F-8.643483365636428
sg15
I01
sg16
I65
sg17
I57
sbs(I5
I64
tp138
g0
(g10
g2
Ntp139
Rp140
(dp141
g14
F3.4467433394348763
sg15
I01
sg16
I64
sg17
I5
sbs(I37
I65
tp142
g0
(g10
g2
Ntp143
Rp144
(dp145
g14
F-0.643758790471898
sg15
I00
sg16
I65
sg17
I37
sbs(I36
I64
tp146
g0
(g10
g2
Ntp147
Rp148
(dp149
g14
F-0.8108303011996671
sg15
I01
sg16
I64
sg17
I36
sbs(I41
I64
tp150
g0
(g10
g2
Ntp151
Rp152
(dp153
g14
F-8.342916998772719
sg15
I01
sg16
I64
sg17
I41
sbs(I0
I64
tp154
g0
(g10
g2
Ntp155
Rp156
(dp157
g14
F5.006644058898094
sg15
I01
sg16
I64
sg17
I0
sbs(I47
I64
tp158
g0
(g10
g2
Ntp159
Rp160
(dp161
g14
F-0.38585783010955393
sg15
I01
sg16
I64
sg17
I47
sbs(I52
I64
tp162
g0
(g10
g2
Ntp163
Rp164
(dp165
g14
F0.7615713679253612
sg15
I00
sg16
I64
sg17
I52
sbs(I46
I65
tp166
g0
(g10
g2
Ntp167
Rp168
(dp169
g14
F4.045640587970049
sg15
I00
sg16
I65
sg17
I46
sbs(I10
I65
tp170
g0
(g10
g2
Ntp171
Rp172
(dp173
g14
F-6.103688491659437
sg15
I00
sg16
I65
sg17
I10
sbs(I23
I65
tp174
g0
(g10
g2
Ntp175
Rp176
(dp177
g14
F-4.91044693027248
sg15
I01
sg16
I65
sg17
I23
sbs(I62
I65
tp178
g0
(g10
g2
Ntp179
Rp180
(dp181
g14
F4.391378404755133
sg15
I01
sg16
I65
sg17
I62
sbs(I59
I65
tp182
g0
(g10
g2
Ntp183
Rp184
(dp185
g14
F2.3302833135410816
sg15
I01
sg16
I65
sg17
I59
sbs(I7
I64
tp186
g0
(g10
g2
Ntp187
Rp188
(dp189
g14
F0.010090813334065848
sg15
I01
sg16
I64
sg17
I7
sbs(I39
I65
tp190
g0
(g10
g2
Ntp191
Rp192
(dp193
g14
F0.03531620106701627
sg15
I01
sg16
I65
sg17
I39
sbs(I38
I64
tp194
g0
(g10
g2
Ntp195
Rp196
(dp197
g14
F1.1833062982776195
sg15
I01
sg16
I64
sg17
I38
sbs(I43
I64
tp198
g0
(g10
g2
Ntp199
Rp200
(dp201
g14
F0.6473917238957289
sg15
I01
sg16
I64
sg17
I43
sbs(I2
I64
tp202
g0
(g10
g2
Ntp203
Rp204
(dp205
g14
F2.4554975449198984
sg15
I01
sg16
I64
sg17
I2
sbs(I33
I64
tp206
g0
(g10
g2
Ntp207
Rp208
(dp209
g14
F0.16415261750012206
sg15
I00
sg16
I64
sg17
I33
sbs(I54
I64
tp210
g0
(g10
g2
Ntp211
Rp212
(dp213
g14
F-2.6836215438800286
sg15
I01
sg16
I64
sg17
I54
sbs(I32
I65
tp214
g0
(g10
g2
Ntp215
Rp216
(dp217
g14
F0.20850189106165554
sg15
I01
sg16
I65
sg17
I32
sbs(I12
I65
tp218
g0
(g10
g2
Ntp219
Rp220
(dp221
g14
F-1.5604041962737831
sg15
I01
sg16
I65
sg17
I12
sbs(I9
I65
tp222
g0
(g10
g2
Ntp223
Rp224
(dp225
g14
F1.9850737770196671
sg15
I01
sg16
I65
sg17
I9
sbs(I48
I65
tp226
g0
(g10
g2
Ntp227
Rp228
(dp229
g14
F1.6341723586651526
sg15
I00
sg16
I65
sg17
I48
sbs(I61
I65
tp230
g0
(g10
g2
Ntp231
Rp232
(dp233
g14
F5.075589166561887
sg15
I01
sg16
I65
sg17
I61
sbs(I25
I65
tp234
g0
(g10
g2
Ntp235
Rp236
(dp237
g14
F-4.3928756228831425
sg15
I00
sg16
I65
sg17
I25
sbs(I19
I64
tp238
g0
(g10
g2
Ntp239
Rp240
(dp241
g14
F-0.7793142376552447
sg15
I00
sg16
I64
sg17
I19
sbs(I24
I64
tp242
g0
(g10
g2
Ntp243
Rp244
(dp245
g14
F1.6818545570581847
sg15
I01
sg16
I64
sg17
I24
sbs(I45
I64
tp246
g0
(g10
g2
Ntp247
Rp248
(dp249
g14
F4.715528023920735
sg15
I01
sg16
I64
sg17
I45
sbs(I4
I64
tp250
g0
(g10
g2
Ntp251
Rp252
(dp253
g14
F0.4174137898640774
sg15
I01
sg16
I64
sg17
I4
sbs(I35
I64
tp254
g0
(g10
g2
Ntp255
Rp256
(dp257
g14
F5.775202872567118
sg15
I01
sg16
I64
sg17
I35
sbs(I40
I64
tp258
g0
(g10
g2
Ntp259
Rp260
(dp261
g14
F-0.05043484060703056
sg15
I01
sg16
I64
sg17
I40
sbs(I34
I65
tp262
g0
(g10
g2
Ntp263
Rp264
(dp265
g14
F-0.6260879027080564
sg15
I00
sg16
I65
sg17
I34
sbs(I14
I65
tp266
g0
(g10
g2
Ntp267
Rp268
(dp269
g14
F6.04445554179292
sg15
I01
sg16
I65
sg17
I14
sbs(I11
I65
tp270
g0
(g10
g2
Ntp271
Rp272
(dp273
g14
F2.0675854434171708
sg15
I01
sg16
I65
sg17
I11
sbs(I50
I65
tp274
g0
(g10
g2
Ntp275
Rp276
(dp277
g14
F0.8024966383640683
sg15
I01
sg16
I65
sg17
I50
sbs(I63
I65
tp278
g0
(g10
g2
Ntp279
Rp280
(dp281
g14
F-1.7372510206996166
sg15
I01
sg16
I65
sg17
I63
sbs(I27
I65
tp282
g0
(g10
g2
Ntp283
Rp284
(dp285
g14
F-3.451775492162366
sg15
I01
sg16
I65
sg17
I27
sbs(I21
I64
tp286
g0
(g10
g2
Ntp287
Rp288
(dp289
g14
F2.087874448337788
sg15
I00
sg16
I64
sg17
I21
sbs(I26
I64
tp290
g0
(g10
g2
Ntp291
Rp292
(dp293
g14
F-0.9602272663600084
sg15
I00
sg16
I64
sg17
I26
sbs(I6
I64
tp294
g0
(g10
g2
Ntp295
Rp296
(dp297
g14
F1.87951028360189
sg15
I00
sg16
I64
sg17
I6
sbs(I57
I64
tp298
g0
(g10
g2
Ntp299
Rp300
(dp301
g14
F-1.0889957090425748
sg15
I00
sg16
I64
sg17
I57
sbs(I37
I64
tp302
g0
(g10
g2
Ntp303
Rp304
(dp305
g14
F-1.6276672980294742
sg15
I01
sg16
I64
sg17
I37
sbs(I42
I64
tp306
g0
(g10
g2
Ntp307
Rp308
(dp309
g14
F-0.9316154672985708
sg15
I01
sg16
I64
sg17
I42
sbs(I36
I65
tp310
g0
(g10
g2
Ntp311
Rp312
(dp313
g14
F-1.2320787404650866
sg15
I01
sg16
I65
sg17
I36
sbs(I0
I65
tp314
g0
(g10
g2
Ntp315
Rp316
(dp317
g14
F0.1441252902117765
sg15
I01
sg16
I65
sg17
I0
sbs(I13
I65
tp318
g0
(g10
g2
Ntp319
Rp320
(dp321
g14
F3.983987431392853
sg15
I01
sg16
I65
sg17
I13
sbs(I52
I65
tp322
g0
(g10
g2
Ntp323
Rp324
(dp325
g14
F-7.871368405959098
sg15
I01
sg16
I65
sg17
I52
sbs(I49
I65
tp326
g0
(g10
g2
Ntp327
Rp328
(dp329
g14
F-11.299784126145667
sg15
I01
sg16
I65
sg17
I49
sbs(I29
I65
tp330
g0
(g10
g2
Ntp331
Rp332
(dp333
g14
F1.9459963653062697
sg15
I01
sg16
I65
sg17
I29
sbs(I23
I64
tp334
g0
(g10
g2
Ntp335
Rp336
(dp337
g14
F5.298667884671201
sg15
I01
sg16
I64
sg17
I23
sbs(I28
I64
tp338
g0
(g10
g2
Ntp339
Rp340
(dp341
g14
F-1.244979016957305
sg15
I01
sg16
I64
sg17
I28
sbs(I59
I64
tp342
g0
(g10
g2
Ntp343
Rp344
(dp345
g14
F1.0228756272011035
sg15
I01
sg16
I64
sg17
I59
sbs(I39
I64
tp346
g0
(g10
g2
Ntp347
Rp348
(dp349
g14
F2.6724944973744877
sg15
I01
sg16
I64
sg17
I39
sbs(I44
I64
tp350
g0
(g10
g2
Ntp351
Rp352
(dp353
g14
F-3.872837819776678
sg15
I00
sg16
I64
sg17
I44
sbs(I38
I65
tp354
g0
(g10
g2
Ntp355
Rp356
(dp357
g14
F-3.8387540387147383
sg15
I00
sg16
I65
sg17
I38
sbs(I2
I65
tp358
g0
(g10
g2
Ntp359
Rp360
(dp361
g14
F-1.2330154610020259
sg15
I01
sg16
I65
sg17
I2
sbs(I15
I65
tp362
g0
(g10
g2
Ntp363
Rp364
(dp365
g14
F-0.2669990982593944
sg15
I01
sg16
I65
sg17
I15
sbs(I54
I65
tp366
g0
(g10
g2
Ntp367
Rp368
(dp369
g14
F-0.7534162870516806
sg15
I01
sg16
I65
sg17
I54
sbs(I51
I65
tp370
g0
(g10
g2
Ntp371
Rp372
(dp373
g14
F-4.440403286161688
sg15
I01
sg16
I65
sg17
I51
sbs(I31
I65
tp374
g0
(g10
g2
Ntp375
Rp376
(dp377
g14
F7.668096534939176
sg15
I01
sg16
I65
sg17
I31
sbs(I9
I64
tp378
g0
(g10
g2
Ntp379
Rp380
(dp381
g14
F2.6240342164843584
sg15
I01
sg16
I64
sg17
I9
sbs(I30
I64
tp382
g0
(g10
g2
Ntp383
Rp384
(dp385
g14
F1.7674885015375712
sg15
I01
sg16
I64
sg17
I30
sbs(I67
I65
tp386
g0
(g10
g2
Ntp387
Rp388
(dp389
g14
F-6.194869974493823
sg15
I01
sg16
I65
sg17
I67
sbs(I61
I64
tp390
g0
(g10
g2
Ntp391
Rp392
(dp393
g14
F-0.40605941436388615
sg15
I01
sg16
I64
sg17
I61
sbs(I20
I64
tp394
g0
(g10
g2
Ntp395
Rp396
(dp397
g14
F0.2035512155456825
sg15
I01
sg16
I64
sg17
I20
sbs(I25
I64
tp398
g0
(g10
g2
Ntp399
Rp400
(dp401
g14
F0.8232978890489044
sg15
I01
sg16
I64
sg17
I25
sbs(I24
I65
tp402
g0
(g10
g2
Ntp403
Rp404
(dp405
g14
F-7.472345867554422
sg15
I00
sg16
I65
sg17
I24
sbs(I56
I64
tp406
g0
(g10
g2
Ntp407
Rp408
(dp409
g14
F1.2833091142784883
sg15
I01
sg16
I64
sg17
I56
sbs(I4
I65
tp410
g0
(g10
g2
Ntp411
Rp412
(dp413
g14
F0.9678121336918504
sg15
I01
sg16
I65
sg17
I4
sbs(I1
I65
tp414
g0
(g10
g2
Ntp415
Rp416
(dp417
g14
F-2.080473530189023
sg15
I00
sg16
I65
sg17
I1
sbs(I40
I65
tp418
g0
(g10
g2
Ntp419
Rp420
(dp421
g14
F3.388894467200049
sg15
I01
sg16
I65
sg17
I40
sbs(I53
I65
tp422
g0
(g10
g2
Ntp423
Rp424
(dp425
g14
F-0.5511439681651384
sg15
I01
sg16
I65
sg17
I53
sbs(I17
I65
tp426
g0
(g10
g2
Ntp427
Rp428
(dp429
g14
F-0.6496836741468167
sg15
I01
sg16
I65
sg17
I17
sbs(I11
I64
tp430
g0
(g10
g2
Ntp431
Rp432
(dp433
g14
F-0.957844625121173
sg15
I01
sg16
I64
sg17
I11
sbs(I16
I64
tp434
g0
(g10
g2
Ntp435
Rp436
(dp437
g14
F-4.54664895361533
sg15
I01
sg16
I64
sg17
I16
sbs(I63
I64
tp438
g0
(g10
g2
Ntp439
Rp440
(dp441
g14
F-0.7765719444300515
sg15
I01
sg16
I64
sg17
I63
sbs(I22
I64
tp442
g0
(g10
g2
Ntp443
Rp444
(dp445
g14
F3.2643384550629113
sg15
I01
sg16
I64
sg17
I22
sbs(I27
I64
tp446
g0
(g10
g2
Ntp447
Rp448
(dp449
g14
F0.2732173882112937
sg15
I01
sg16
I64
sg17
I27
sbs(I8
I67
tp450
g0
(g10
g2
Ntp451
Rp452
(dp453
g14
F-1.7279586491593033
sg15
I01
sg16
I67
sg17
I8
sbs(I26
I65
tp454
g0
(g10
g2
Ntp455
Rp456
(dp457
g14
F-0.28637912893014933
sg15
I01
sg16
I65
sg17
I26
sbs(I58
I64
tp458
g0
(g10
g2
Ntp459
Rp460
(dp461
g14
F-8.740366188552311
sg15
I01
sg16
I64
sg17
I58
sbs(I6
I65
tp462
g0
(g10
g2
Ntp463
Rp464
(dp465
g14
F-3.5099611463091636
sg15
I01
sg16
I65
sg17
I6
sbs(I3
I65
tp466
g0
(g10
g2
Ntp467
Rp468
(dp469
g14
F-6.198889292839557
sg15
I01
sg16
I65
sg17
I3
sbs(I42
I65
tp470
g0
(g10
g2
Ntp471
Rp472
(dp473
g14
F2.511753856811783
sg15
I01
sg16
I65
sg17
I42
sbs(I55
I65
tp474
g0
(g10
g2
Ntp475
Rp476
(dp477
g14
F-1.372267889662054
sg15
I00
sg16
I65
sg17
I55
sbs(I0
I66
tp478
g0
(g10
g2
Ntp479
Rp480
(dp481
g14
F-0.8558767000439436
sg15
I01
sg16
I66
sg17
I0
sbs(I13
I64
tp482
g0
(g10
g2
Ntp483
Rp484
(dp485
g14
F10.162408698175517
sg15
I01
sg16
I64
sg17
I13
sbs(I18
I64
tp486
g0
(g10
g2
Ntp487
Rp488
(dp489
g14
F0.6886771039110455
sg15
I01
sg16
I64
sg17
I18
sbs(I49
I64
tp490
g0
(g10
g2
Ntp491
Rp492
(dp493
g14
F-2.2457250474894046
sg15
I01
sg16
I64
sg17
I49
sbs(I8
I64
tp494
g0
(g10
g2
Ntp495
Rp496
(dp497
g14
F0.5123218695344194
sg15
I00
sg16
I64
sg17
I8
sbs(I29
I64
tp498
g0
(g10
g2
Ntp499
Rp500
(dp501
g14
F1.0908882530432529
sg15
I01
sg16
I64
sg17
I29
sbs(I28
I65
tp502
g0
(g10
g2
Ntp503
Rp504
(dp505
g14
F2.8809439234228167
sg15
I01
sg16
I65
sg17
I28
sbs(I60
I64
tp506
g0
(g10
g2
Ntp507
Rp508
(dp509
g14
F1.6092269302041196
sg15
I01
sg16
I64
sg17
I60
sbs(I5
I65
tp510
g0
(g10
g2
Ntp511
Rp512
(dp513
g14
F1.892568810809969
sg15
I01
sg16
I65
sg17
I5
sbs(I44
I65
tp514
g0
(g10
g2
Ntp515
Rp516
(dp517
g14
F4.280094136993618
sg15
I01
sg16
I65
sg17
I44
sbs(I41
I65
tp518
g0
(g10
g2
Ntp519
Rp520
(dp521
g14
F5.261114973454602
sg15
I01
sg16
I65
sg17
I41
sbs(I15
I64
tp522
g0
(g10
g2
Ntp523
Rp524
(dp525
g14
F-8.508180798770727
sg15
I01
sg16
I64
sg17
I15
sbs(I47
I65
tp526
g0
(g10
g2
Ntp527
Rp528
(dp529
g14
F-6.635709333299888
sg15
I00
sg16
I65
sg17
I47
sbs(I46
I64
tp530
g0
(g10
g2
Ntp531
Rp532
(dp533
g14
F3.1304751106396864
sg15
I01
sg16
I64
sg17
I46
sbs(I51
I64
tp534
g0
(g10
g2
Ntp535
Rp536
(dp537
g14
F4.385125995907551
sg15
I01
sg16
I64
sg17
I51
sbs(I10
I64
tp538
g0
(g10
g2
Ntp539
Rp540
(dp541
g14
F-3.1500600253855864
sg15
I01
sg16
I64
sg17
I10
sbs(I31
I64
tp542
g0
(g10
g2
Ntp543
Rp544
(dp545
g14
F-5.264647210732842
sg15
I01
sg16
I64
sg17
I31
sbssS'parent1_id'
p546
I618
sS'num_inputs'
p547
I64
sS'node_genes'
p548
(dp549
I0
g0
(cneat.genes
NodeGene
p550
g2
Ntp551
Rp552
(dp553
S'activation_type'
p554
S'sigmoid'
p555
sS'bias'
p556
F0.0
sS'type'
p557
S'INPUT'
p558
sS'ID'
p559
I0
sS'response'
p560
F4.924273
sbsI1
g0
(g550
g2
Ntp561
Rp562
(dp563
g554
g555
sg556
F0.0
sg557
g558
sg559
I1
sg560
F4.924273
sbsI2
g0
(g550
g2
Ntp564
Rp565
(dp566
g554
g555
sg556
F0.0
sg557
g558
sg559
I2
sg560
F4.924273
sbsI3
g0
(g550
g2
Ntp567
Rp568
(dp569
g554
g555
sg556
F0.0
sg557
g558
sg559
I3
sg560
F4.924273
sbsI4
g0
(g550
g2
Ntp570
Rp571
(dp572
g554
g555
sg556
F0.0
sg557
g558
sg559
I4
sg560
F4.924273
sbsI5
g0
(g550
g2
Ntp573
Rp574
(dp575
g554
g555
sg556
F0.0
sg557
g558
sg559
I5
sg560
F4.924273
sbsI6
g0
(g550
g2
Ntp576
Rp577
(dp578
g554
g555
sg556
F0.0
sg557
g558
sg559
I6
sg560
F4.924273
sbsI7
g0
(g550
g2
Ntp579
Rp580
(dp581
g554
g555
sg556
F0.0
sg557
g558
sg559
I7
sg560
F4.924273
sbsI8
g0
(g550
g2
Ntp582
Rp583
(dp584
g554
g555
sg556
F0.0
sg557
g558
sg559
I8
sg560
F4.924273
sbsI9
g0
(g550
g2
Ntp585
Rp586
(dp587
g554
g555
sg556
F0.0
sg557
g558
sg559
I9
sg560
F4.924273
sbsI10
g0
(g550
g2
Ntp588
Rp589
(dp590
g554
g555
sg556
F0.0
sg557
g558
sg559
I10
sg560
F4.924273
sbsI11
g0
(g550
g2
Ntp591
Rp592
(dp593
g554
g555
sg556
F0.0
sg557
g558
sg559
I11
sg560
F4.924273
sbsI12
g0
(g550
g2
Ntp594
Rp595
(dp596
g554
g555
sg556
F0.0
sg557
g558
sg559
I12
sg560
F4.924273
sbsI13
g0
(g550
g2
Ntp597
Rp598
(dp599
g554
g555
sg556
F0.0
sg557
g558
sg559
I13
sg560
F4.924273
sbsI14
g0
(g550
g2
Ntp600
Rp601
(dp602
g554
g555
sg556
F0.0
sg557
g558
sg559
I14
sg560
F4.924273
sbsI15
g0
(g550
g2
Ntp603
Rp604
(dp605
g554
g555
sg556
F0.0
sg557
g558
sg559
I15
sg560
F4.924273
sbsI16
g0
(g550
g2
Ntp606
Rp607
(dp608
g554
g555
sg556
F0.0
sg557
g558
sg559
I16
sg560
F4.924273
sbsI17
g0
(g550
g2
Ntp609
Rp610
(dp611
g554
g555
sg556
F0.0
sg557
g558
sg559
I17
sg560
F4.924273
sbsI18
g0
(g550
g2
Ntp612
Rp613
(dp614
g554
g555
sg556
F0.0
sg557
g558
sg559
I18
sg560
F4.924273
sbsI19
g0
(g550
g2
Ntp615
Rp616
(dp617
g554
g555
sg556
F0.0
sg557
g558
sg559
I19
sg560
F4.924273
sbsI20
g0
(g550
g2
Ntp618
Rp619
(dp620
g554
g555
sg556
F0.0
sg557
g558
sg559
I20
sg560
F4.924273
sbsI21
g0
(g550
g2
Ntp621
Rp622
(dp623
g554
g555
sg556
F0.0
sg557
g558
sg559
I21
sg560
F4.924273
sbsI22
g0
(g550
g2
Ntp624
Rp625
(dp626
g554
g555
sg556
F0.0
sg557
g558
sg559
I22
sg560
F4.924273
sbsI23
g0
(g550
g2
Ntp627
Rp628
(dp629
g554
g555
sg556
F0.0
sg557
g558
sg559
I23
sg560
F4.924273
sbsI24
g0
(g550
g2
Ntp630
Rp631
(dp632
g554
g555
sg556
F0.0
sg557
g558
sg559
I24
sg560
F4.924273
sbsI25
g0
(g550
g2
Ntp633
Rp634
(dp635
g554
g555
sg556
F0.0
sg557
g558
sg559
I25
sg560
F4.924273
sbsI26
g0
(g550
g2
Ntp636
Rp637
(dp638
g554
g555
sg556
F0.0
sg557
g558
sg559
I26
sg560
F4.924273
sbsI27
g0
(g550
g2
Ntp639
Rp640
(dp641
g554
g555
sg556
F0.0
sg557
g558
sg559
I27
sg560
F4.924273
sbsI28
g0
(g550
g2
Ntp642
Rp643
(dp644
g554
g555
sg556
F0.0
sg557
g558
sg559
I28
sg560
F4.924273
sbsI29
g0
(g550
g2
Ntp645
Rp646
(dp647
g554
g555
sg556
F0.0
sg557
g558
sg559
I29
sg560
F4.924273
sbsI30
g0
(g550
g2
Ntp648
Rp649
(dp650
g554
g555
sg556
F0.0
sg557
g558
sg559
I30
sg560
F4.924273
sbsI31
g0
(g550
g2
Ntp651
Rp652
(dp653
g554
g555
sg556
F0.0
sg557
g558
sg559
I31
sg560
F4.924273
sbsI32
g0
(g550
g2
Ntp654
Rp655
(dp656
g554
g555
sg556
F0.0
sg557
g558
sg559
I32
sg560
F4.924273
sbsI33
g0
(g550
g2
Ntp657
Rp658
(dp659
g554
g555
sg556
F0.0
sg557
g558
sg559
I33
sg560
F4.924273
sbsI34
g0
(g550
g2
Ntp660
Rp661
(dp662
g554
g555
sg556
F0.0
sg557
g558
sg559
I34
sg560
F4.924273
sbsI35
g0
(g550
g2
Ntp663
Rp664
(dp665
g554
g555
sg556
F0.0
sg557
g558
sg559
I35
sg560
F4.924273
sbsI36
g0
(g550
g2
Ntp666
Rp667
(dp668
g554
g555
sg556
F0.0
sg557
g558
sg559
I36
sg560
F4.924273
sbsI37
g0
(g550
g2
Ntp669
Rp670
(dp671
g554
g555
sg556
F0.0
sg557
g558
sg559
I37
sg560
F4.924273
sbsI38
g0
(g550
g2
Ntp672
Rp673
(dp674
g554
g555
sg556
F0.0
sg557
g558
sg559
I38
sg560
F4.924273
sbsI39
g0
(g550
g2
Ntp675
Rp676
(dp677
g554
g555
sg556
F0.0
sg557
g558
sg559
I39
sg560
F4.924273
sbsI40
g0
(g550
g2
Ntp678
Rp679
(dp680
g554
g555
sg556
F0.0
sg557
g558
sg559
I40
sg560
F4.924273
sbsI41
g0
(g550
g2
Ntp681
Rp682
(dp683
g554
g555
sg556
F0.0
sg557
g558
sg559
I41
sg560
F4.924273
sbsI42
g0
(g550
g2
Ntp684
Rp685
(dp686
g554
g555
sg556
F0.0
sg557
g558
sg559
I42
sg560
F4.924273
sbsI43
g0
(g550
g2
Ntp687
Rp688
(dp689
g554
g555
sg556
F0.0
sg557
g558
sg559
I43
sg560
F4.924273
sbsI44
g0
(g550
g2
Ntp690
Rp691
(dp692
g554
g555
sg556
F0.0
sg557
g558
sg559
I44
sg560
F4.924273
sbsI45
g0
(g550
g2
Ntp693
Rp694
(dp695
g554
g555
sg556
F0.0
sg557
g558
sg559
I45
sg560
F4.924273
sbsI46
g0
(g550
g2
Ntp696
Rp697
(dp698
g554
g555
sg556
F0.0
sg557
g558
sg559
I46
sg560
F4.924273
sbsI47
g0
(g550
g2
Ntp699
Rp700
(dp701
g554
g555
sg556
F0.0
sg557
g558
sg559
I47
sg560
F4.924273
sbsI48
g0
(g550
g2
Ntp702
Rp703
(dp704
g554
g555
sg556
F0.0
sg557
g558
sg559
I48
sg560
F4.924273
sbsI49
g0
(g550
g2
Ntp705
Rp706
(dp707
g554
g555
sg556
F0.0
sg557
g558
sg559
I49
sg560
F4.924273
sbsI50
g0
(g550
g2
Ntp708
Rp709
(dp710
g554
g555
sg556
F0.0
sg557
g558
sg559
I50
sg560
F4.924273
sbsI51
g0
(g550
g2
Ntp711
Rp712
(dp713
g554
g555
sg556
F0.0
sg557
g558
sg559
I51
sg560
F4.924273
sbsI52
g0
(g550
g2
Ntp714
Rp715
(dp716
g554
g555
sg556
F0.0
sg557
g558
sg559
I52
sg560
F4.924273
sbsI53
g0
(g550
g2
Ntp717
Rp718
(dp719
g554
g555
sg556
F0.0
sg557
g558
sg559
I53
sg560
F4.924273
sbsI54
g0
(g550
g2
Ntp720
Rp721
(dp722
g554
g555
sg556
F0.0
sg557
g558
sg559
I54
sg560
F4.924273
sbsI55
g0
(g550
g2
Ntp723
Rp724
(dp725
g554
g555
sg556
F0.0
sg557
g558
sg559
I55
sg560
F4.924273
sbsI56
g0
(g550
g2
Ntp726
Rp727
(dp728
g554
g555
sg556
F0.0
sg557
g558
sg559
I56
sg560
F4.924273
sbsI57
g0
(g550
g2
Ntp729
Rp730
(dp731
g554
g555
sg556
F0.0
sg557
g558
sg559
I57
sg560
F4.924273
sbsI58
g0
(g550
g2
Ntp732
Rp733
(dp734
g554
g555
sg556
F0.0
sg557
g558
sg559
I58
sg560
F4.924273
sbsI59
g0
(g550
g2
Ntp735
Rp736
(dp737
g554
g555
sg556
F0.0
sg557
g558
sg559
I59
sg560
F4.924273
sbsI60
g0
(g550
g2
Ntp738
Rp739
(dp740
g554
g555
sg556
F0.0
sg557
g558
sg559
I60
sg560
F4.924273
sbsI61
g0
(g550
g2
Ntp741
Rp742
(dp743
g554
g555
sg556
F0.0
sg557
g558
sg559
I61
sg560
F4.924273
sbsI62
g0
(g550
g2
Ntp744
Rp745
(dp746
g554
g555
sg556
F0.0
sg557
g558
sg559
I62
sg560
F4.924273
sbsI63
g0
(g550
g2
Ntp747
Rp748
(dp749
g554
g555
sg556
F0.0
sg557
g558
sg559
I63
sg560
F4.924273
sbsI64
g0
(g550
g2
Ntp750
Rp751
(dp752
g554
S'sigmoid'
p753
sg556
F3.0181217577895683
sg557
S'OUTPUT'
p754
sg559
I64
sg560
F2.477156838509858
sbsI65
g0
(g550
g2
Ntp755
Rp756
(dp757
g554
g753
sg556
F-1.1444353010454662
sg557
g754
sg559
I65
sg560
F4.653478398490896
sbsI66
g0
(g550
g2
Ntp758
Rp759
(dp760
g554
g753
sg556
F-2.25943987269136
sg557
S'HIDDEN'
p761
sg559
I66
sg560
F4.830853479890628
sbsI67
g0
(g550
g2
Ntp762
Rp763
(dp764
g554
g753
sg556
F0.29575186463569136
sg557
g761
sg559
I67
sg560
F4.602494303245649
sbssS'node_order'
p765
(lp766
I67
aI66
asS'num_outputs'
p767
I2
sS'fitness'
p768
I180
sS'parent2_id'
p769
I618
sS'config'
p770
g0
(cneat.config
Config
p771
g2
Ntp772
Rp773
(dp774
S'weight_stdev'
p775
F1.0
sS'disjoint_coefficient'
p776
F1.0
sS'prob_delete_node'
p777
F0.05
sS'initial_connection'
p778
S'fully_connected'
p779
sS'stagnation_type'
p780
cneat.stagnation
DefaultStagnation
p781
sS'weight_mutation_power'
p782
F2.0
sS'excess_coefficient'
p783
F1.0
sS'compatibility_threshold'
p784
F0.7
sS'pop_size'
p785
I100
sS'weight_coefficient'
p786
F0.3
sS'feedforward'
p787
I01
sS'prob_add_node'
p788
F0.2
sS'genotype'
p789
g1
sS'type_config'
p790
(dp791
S'DefaultStagnation'
p792
(lp793
(S'species_fitness_func'
p794
S'mean'
p795
tp796
a(S'max_stagnation'
p797
S'15'
p798
tp799
asS'DefaultReproduction'
p800
(lp801
(S'elitism'
p802
S'1'
p803
tp804
a(S'survival_threshold'
p805
S'0.2'
p806
tp807
assS'prob_mutate_activation'
p808
F0.1
sS'conn_gene_type'
p809
g10
sS'connection_fraction'
p810
NsS'activation_functions'
p811
(lp812
g753
asS'save_best'
p813
I00
sS'response_mutation_power'
p814
F0.5
sS'prob_add_conn'
p815
F0.7
sS'checkpoint_time_interval'
p816
NsS'checkpoint_gen_interval'
p817
NsS'prob_mutate_bias'
p818
F0.8
sS'reproduction_type'
p819
cneat.reproduction
DefaultReproduction
p820
sS'node_gene_type'
p821
g550
sS'output_nodes'
p822
I2
sS'input_nodes'
p823
I64
sS'prob_replace_weight'
p824
F0.1
sS'registry'
p825
(dp826
S'DefaultStagnation'
p827
g781
sS'DefaultReproduction'
p828
g820
ssS'hidden_nodes'
p829
I0
sS'report'
p830
I01
sS'prob_mutate_response'
p831
F0.5
sS'collect_statistics'
p832
I01
sS'max_weight'
p833
F50.0
sS'prob_toggle_link'
p834
F0.02
sS'min_weight'
p835
F-50.0
sS'max_fitness_threshold'
p836
F100000.0
sS'bias_mutation_power'
p837
F1.0
sS'prob_delete_conn'
p838
F0.1
sS'reset_on_extinction'
p839
I01
sS'prob_mutate_weight'
p840
F0.6
sbsg559
I632
sb.