ccopy_reg
_reconstructor
p0
(cneat.genome
FFGenome
p1
c__builtin__
object
p2
Ntp3
Rp4
(dp5
S'species_id'
p6
I24
sS'conn_genes'
p7
(dp8
(I59
I183
tp9
g0
(cneat.genes
ConnectionGene
p10
g2
Ntp11
Rp12
(dp13
S'weight'
p14
F-0.24691538868013052
sS'enabled'
p15
I01
sS'out_node_id'
p16
I183
sS'in_node_id'
p17
I59
sbs(I236
I174
tp18
g0
(g10
g2
Ntp19
Rp20
(dp21
g14
F-2.644890721158683
sg15
I01
sg16
I174
sg17
I236
sbs(I328
I174
tp22
g0
(g10
g2
Ntp23
Rp24
(dp25
g14
F0.036580316151134606
sg15
I01
sg16
I174
sg17
I328
sbs(I179
I155
tp26
g0
(g10
g2
Ntp27
Rp28
(dp29
g14
F-7.235466786251937
sg15
I01
sg16
I155
sg17
I179
sbs(I48
I86
tp30
g0
(g10
g2
Ntp31
Rp32
(dp33
g14
F-2.7213260168796527
sg15
I00
sg16
I86
sg17
I48
sbs(I15
I358
tp34
g0
(g10
g2
Ntp35
Rp36
(dp37
g14
F2.450080315988869
sg15
I01
sg16
I358
sg17
I15
sbs(I126
I106
tp38
g0
(g10
g2
Ntp39
Rp40
(dp41
g14
F-1.029046787316937
sg15
I00
sg16
I106
sg17
I126
sbs(I63
I163
tp42
g0
(g10
g2
Ntp43
Rp44
(dp45
g14
F0.45397108342625714
sg15
I00
sg16
I163
sg17
I63
sbs(I31
I286
tp46
g0
(g10
g2
Ntp47
Rp48
(dp49
g14
F1.5533120442213724
sg15
I01
sg16
I286
sg17
I31
sbs(I27
I227
tp50
g0
(g10
g2
Ntp51
Rp52
(dp53
g14
F-0.28426479371357605
sg15
I01
sg16
I227
sg17
I27
sbs(I286
I269
tp54
g0
(g10
g2
Ntp55
Rp56
(dp57
g14
F1.3409648046962095
sg15
I00
sg16
I269
sg17
I286
sbs(I292
I352
tp58
g0
(g10
g2
Ntp59
Rp60
(dp61
g14
F-1.4488764712524904
sg15
I00
sg16
I352
sg17
I292
sbs(I76
I66
tp62
g0
(g10
g2
Ntp63
Rp64
(dp65
g14
F6.102395207911944
sg15
I00
sg16
I66
sg17
I76
sbs(I223
I100
tp66
g0
(g10
g2
Ntp67
Rp68
(dp69
g14
F-9.985444907982078
sg15
I00
sg16
I100
sg17
I223
sbs(I179
I167
tp70
g0
(g10
g2
Ntp71
Rp72
(dp73
g14
F5.858200664313667
sg15
I01
sg16
I167
sg17
I179
sbs(I114
I110
tp74
g0
(g10
g2
Ntp75
Rp76
(dp77
g14
F-3.5841913339491374
sg15
I01
sg16
I110
sg17
I114
sbs(I204
I101
tp78
g0
(g10
g2
Ntp79
Rp80
(dp81
g14
F-3.3154747049463396
sg15
I01
sg16
I101
sg17
I204
sbs(I52
I263
tp82
g0
(g10
g2
Ntp83
Rp84
(dp85
g14
F9.258112641576426
sg15
I01
sg16
I263
sg17
I52
sbs(I50
I186
tp86
g0
(g10
g2
Ntp87
Rp88
(dp89
g14
F4.00075070345664
sg15
I01
sg16
I186
sg17
I50
sbs(I324
I321
tp90
g0
(g10
g2
Ntp91
Rp92
(dp93
g14
F-3.2262884753607874
sg15
I01
sg16
I321
sg17
I324
sbs(I255
I65
tp94
g0
(g10
g2
Ntp95
Rp96
(dp97
g14
F-7.620647338413644
sg15
I00
sg16
I65
sg17
I255
sbs(I143
I146
tp98
g0
(g10
g2
Ntp99
Rp100
(dp101
g14
F-2.620910303678241
sg15
I01
sg16
I146
sg17
I143
sbs(I17
I168
tp102
g0
(g10
g2
Ntp103
Rp104
(dp105
g14
F-10.222631614195741
sg15
I01
sg16
I168
sg17
I17
sbs(I220
I67
tp106
g0
(g10
g2
Ntp107
Rp108
(dp109
g14
F10.547177587677071
sg15
I01
sg16
I67
sg17
I220
sbs(I95
I98
tp110
g0
(g10
g2
Ntp111
Rp112
(dp113
g14
F0.2445992131962188
sg15
I00
sg16
I98
sg17
I95
sbs(I48
I281
tp114
g0
(g10
g2
Ntp115
Rp116
(dp117
g14
F-2.139642395464002
sg15
I00
sg16
I281
sg17
I48
sbs(I19
I148
tp118
g0
(g10
g2
Ntp119
Rp120
(dp121
g14
F2.624843159082399
sg15
I01
sg16
I148
sg17
I19
sbs(I19
I287
tp122
g0
(g10
g2
Ntp123
Rp124
(dp125
g14
F-6.515714224667249
sg15
I01
sg16
I287
sg17
I19
sbs(I328
I280
tp126
g0
(g10
g2
Ntp127
Rp128
(dp129
g14
F3.8075925759368228
sg15
I00
sg16
I280
sg17
I328
sbs(I220
I151
tp130
g0
(g10
g2
Ntp131
Rp132
(dp133
g14
F0.8094648748185509
sg15
I00
sg16
I151
sg17
I220
sbs(I179
I267
tp134
g0
(g10
g2
Ntp135
Rp136
(dp137
g14
F5.080113630441047
sg15
I00
sg16
I267
sg17
I179
sbs(I76
I293
tp138
g0
(g10
g2
Ntp139
Rp140
(dp141
g14
F6.263643718380256
sg15
I01
sg16
I293
sg17
I76
sbs(I49
I89
tp142
g0
(g10
g2
Ntp143
Rp144
(dp145
g14
F-6.676233901673541
sg15
I00
sg16
I89
sg17
I49
sbs(I31
I89
tp146
g0
(g10
g2
Ntp147
Rp148
(dp149
g14
F-1.4305445703070503
sg15
I01
sg16
I89
sg17
I31
sbs(I192
I285
tp150
g0
(g10
g2
Ntp151
Rp152
(dp153
g14
F-3.490065656245772
sg15
I00
sg16
I285
sg17
I192
sbs(I28
I198
tp154
g0
(g10
g2
Ntp155
Rp156
(dp157
g14
F-6.383552424950293
sg15
I01
sg16
I198
sg17
I28
sbs(I32
I65
tp158
g0
(g10
g2
Ntp159
Rp160
(dp161
g14
F-2.2923046055418816
sg15
I00
sg16
I65
sg17
I32
sbs(I340
I89
tp162
g0
(g10
g2
Ntp163
Rp164
(dp165
g14
F-0.853690280005234
sg15
I01
sg16
I89
sg17
I340
sbs(I116
I355
tp166
g0
(g10
g2
Ntp167
Rp168
(dp169
g14
F-1.2240046109825355
sg15
I01
sg16
I355
sg17
I116
sbs(I132
I239
tp170
g0
(g10
g2
Ntp171
Rp172
(dp173
g14
F-5.7138379378119195
sg15
I01
sg16
I239
sg17
I132
sbs(I131
I94
tp174
g0
(g10
g2
Ntp175
Rp176
(dp177
g14
F-0.9998929610139143
sg15
I00
sg16
I94
sg17
I131
sbs(I19
I344
tp178
g0
(g10
g2
Ntp179
Rp180
(dp181
g14
F7.903516052119003
sg15
I01
sg16
I344
sg17
I19
sbs(I305
I99
tp182
g0
(g10
g2
Ntp183
Rp184
(dp185
g14
F3.675313338746605
sg15
I00
sg16
I99
sg17
I305
sbs(I4
I66
tp186
g0
(g10
g2
Ntp187
Rp188
(dp189
g14
F-5.244040582180617
sg15
I01
sg16
I66
sg17
I4
sbs(I136
I240
tp190
g0
(g10
g2
Ntp191
Rp192
(dp193
g14
F6.074551078573613
sg15
I00
sg16
I240
sg17
I136
sbs(I22
I289
tp194
g0
(g10
g2
Ntp195
Rp196
(dp197
g14
F-4.844617529193807
sg15
I01
sg16
I289
sg17
I22
sbs(I178
I128
tp198
g0
(g10
g2
Ntp199
Rp200
(dp201
g14
F7.12489495093595
sg15
I00
sg16
I128
sg17
I178
sbs(I46
I145
tp202
g0
(g10
g2
Ntp203
Rp204
(dp205
g14
F0.6298128670733399
sg15
I01
sg16
I145
sg17
I46
sbs(I43
I113
tp206
g0
(g10
g2
Ntp207
Rp208
(dp209
g14
F0.8181624942420699
sg15
I00
sg16
I113
sg17
I43
sbs(I222
I64
tp210
g0
(g10
g2
Ntp211
Rp212
(dp213
g14
F-3.954312612857874
sg15
I01
sg16
I64
sg17
I222
sbs(I4
I147
tp214
g0
(g10
g2
Ntp215
Rp216
(dp217
g14
F-1.4230678038003026
sg15
I00
sg16
I147
sg17
I4
sbs(I319
I265
tp218
g0
(g10
g2
Ntp219
Rp220
(dp221
g14
F5.561830195918359
sg15
I01
sg16
I265
sg17
I319
sbs(I145
I320
tp222
g0
(g10
g2
Ntp223
Rp224
(dp225
g14
F-4.6294162000247585
sg15
I01
sg16
I320
sg17
I145
sbs(I45
I242
tp226
g0
(g10
g2
Ntp227
Rp228
(dp229
g14
F0.9469669053056429
sg15
I01
sg16
I242
sg17
I45
sbs(I261
I91
tp230
g0
(g10
g2
Ntp231
Rp232
(dp233
g14
F-8.05603208531755
sg15
I01
sg16
I91
sg17
I261
sbs(I167
I267
tp234
g0
(g10
g2
Ntp235
Rp236
(dp237
g14
F-5.919013668848309
sg15
I00
sg16
I267
sg17
I167
sbs(I188
I71
tp238
g0
(g10
g2
Ntp239
Rp240
(dp241
g14
F3.976342267830166
sg15
I01
sg16
I71
sg17
I188
sbs(I15
I108
tp242
g0
(g10
g2
Ntp243
Rp244
(dp245
g14
F1.0350744677265782
sg15
I00
sg16
I108
sg17
I15
sbs(I296
I270
tp246
g0
(g10
g2
Ntp247
Rp248
(dp249
g14
F-8.726379284885404
sg15
I00
sg16
I270
sg17
I296
sbs(I167
I238
tp250
g0
(g10
g2
Ntp251
Rp252
(dp253
g14
F0.38782572701085183
sg15
I01
sg16
I238
sg17
I167
sbs(I28
I68
tp254
g0
(g10
g2
Ntp255
Rp256
(dp257
g14
F3.956650433665638
sg15
I01
sg16
I68
sg17
I28
sbs(I205
I243
tp258
g0
(g10
g2
Ntp259
Rp260
(dp261
g14
F2.40082166228349
sg15
I01
sg16
I243
sg17
I205
sbs(I54
I110
tp262
g0
(g10
g2
Ntp263
Rp264
(dp265
g14
F-4.260388269068365
sg15
I00
sg16
I110
sg17
I54
sbs(I243
I257
tp266
g0
(g10
g2
Ntp267
Rp268
(dp269
g14
F1.818484215697031
sg15
I00
sg16
I257
sg17
I243
sbs(I293
I66
tp270
g0
(g10
g2
Ntp271
Rp272
(dp273
g14
F-4.3307383834679625
sg15
I00
sg16
I66
sg17
I293
sbs(I262
I304
tp274
g0
(g10
g2
Ntp275
Rp276
(dp277
g14
F-7.5802697166509105
sg15
I00
sg16
I304
sg17
I262
sbs(I121
I119
tp278
g0
(g10
g2
Ntp279
Rp280
(dp281
g14
F0.830104226581956
sg15
I00
sg16
I119
sg17
I121
sbs(I157
I113
tp282
g0
(g10
g2
Ntp283
Rp284
(dp285
g14
F-3.537551494810697
sg15
I00
sg16
I113
sg17
I157
sbs(I193
I214
tp286
g0
(g10
g2
Ntp287
Rp288
(dp289
g14
F1.8787859188545346
sg15
I01
sg16
I214
sg17
I193
sbs(I93
I233
tp290
g0
(g10
g2
Ntp291
Rp292
(dp293
g14
F-3.2271071305241525
sg15
I00
sg16
I233
sg17
I93
sbs(I195
I65
tp294
g0
(g10
g2
Ntp295
Rp296
(dp297
g14
F-1.227727913662923
sg15
I01
sg16
I65
sg17
I195
sbs(I92
I265
tp298
g0
(g10
g2
Ntp299
Rp300
(dp301
g14
F0.08364708826916614
sg15
I00
sg16
I265
sg17
I92
sbs(I276
I125
tp302
g0
(g10
g2
Ntp303
Rp304
(dp305
g14
F10.546752114947028
sg15
I00
sg16
I125
sg17
I276
sbs(I230
I258
tp306
g0
(g10
g2
Ntp307
Rp308
(dp309
g14
F-11.959339416264054
sg15
I00
sg16
I258
sg17
I230
sbs(I309
I74
tp310
g0
(g10
g2
Ntp311
Rp312
(dp313
g14
F7.114592082191529
sg15
I00
sg16
I74
sg17
I309
sbs(I120
I75
tp314
g0
(g10
g2
Ntp315
Rp316
(dp317
g14
F4.6382708806561626
sg15
I00
sg16
I75
sg17
I120
sbs(I242
I195
tp318
g0
(g10
g2
Ntp319
Rp320
(dp321
g14
F2.696604287063206
sg15
I01
sg16
I195
sg17
I242
sbs(I263
I180
tp322
g0
(g10
g2
Ntp323
Rp324
(dp325
g14
F-1.4280276240028877
sg15
I00
sg16
I180
sg17
I263
sbs(I10
I223
tp326
g0
(g10
g2
Ntp327
Rp328
(dp329
g14
F-10.276296786556653
sg15
I01
sg16
I223
sg17
I10
sbs(I27
I65
tp330
g0
(g10
g2
Ntp331
Rp332
(dp333
g14
F0.7014594323704096
sg15
I01
sg16
I65
sg17
I27
sbs(I245
I155
tp334
g0
(g10
g2
Ntp335
Rp336
(dp337
g14
F-3.6884374393724575
sg15
I01
sg16
I155
sg17
I245
sbs(I51
I71
tp338
g0
(g10
g2
Ntp339
Rp340
(dp341
g14
F3.6871616640673093
sg15
I01
sg16
I71
sg17
I51
sbs(I208
I99
tp342
g0
(g10
g2
Ntp343
Rp344
(dp345
g14
F-4.629036374138852
sg15
I01
sg16
I99
sg17
I208
sbs(I323
I203
tp346
g0
(g10
g2
Ntp347
Rp348
(dp349
g14
F3.9548520766971005
sg15
I01
sg16
I203
sg17
I323
sbs(I183
I128
tp350
g0
(g10
g2
Ntp351
Rp352
(dp353
g14
F9.10311893991428
sg15
I00
sg16
I128
sg17
I183
sbs(I349
I68
tp354
g0
(g10
g2
Ntp355
Rp356
(dp357
g14
F2.24744247697938
sg15
I01
sg16
I68
sg17
I349
sbs(I285
I196
tp358
g0
(g10
g2
Ntp359
Rp360
(dp361
g14
F-1.9070739885354977
sg15
I00
sg16
I196
sg17
I285
sbs(I171
I134
tp362
g0
(g10
g2
Ntp363
Rp364
(dp365
g14
F-7.85279502831728
sg15
I00
sg16
I134
sg17
I171
sbs(I7
I73
tp366
g0
(g10
g2
Ntp367
Rp368
(dp369
g14
F2.0995219661624813
sg15
I01
sg16
I73
sg17
I7
sbs(I42
I95
tp370
g0
(g10
g2
Ntp371
Rp372
(dp373
g14
F1.1504072654530368
sg15
I00
sg16
I95
sg17
I42
sbs(I123
I129
tp374
g0
(g10
g2
Ntp375
Rp376
(dp377
g14
F-5.667809318537624
sg15
I00
sg16
I129
sg17
I123
sbs(I337
I70
tp378
g0
(g10
g2
Ntp379
Rp380
(dp381
g14
F2.579779605584452
sg15
I00
sg16
I70
sg17
I337
sbs(I10
I100
tp382
g0
(g10
g2
Ntp383
Rp384
(dp385
g14
F6.777927136384331
sg15
I00
sg16
I100
sg17
I10
sbs(I66
I73
tp386
g0
(g10
g2
Ntp387
Rp388
(dp389
g14
F8.732278649794585
sg15
I01
sg16
I73
sg17
I66
sbs(I27
I312
tp390
g0
(g10
g2
Ntp391
Rp392
(dp393
g14
F-9.382275733152296
sg15
I01
sg16
I312
sg17
I27
sbs(I45
I195
tp394
g0
(g10
g2
Ntp395
Rp396
(dp397
g14
F3.2758880154559127
sg15
I01
sg16
I195
sg17
I45
sbs(I180
I193
tp398
g0
(g10
g2
Ntp399
Rp400
(dp401
g14
F-4.582992052565868
sg15
I01
sg16
I193
sg17
I180
sbs(I27
I179
tp402
g0
(g10
g2
Ntp403
Rp404
(dp405
g14
F1.1251892689044187
sg15
I01
sg16
I179
sg17
I27
sbs(I182
I229
tp406
g0
(g10
g2
Ntp407
Rp408
(dp409
g14
F6.565242928253455
sg15
I01
sg16
I229
sg17
I182
sbs(I37
I147
tp410
g0
(g10
g2
Ntp411
Rp412
(dp413
g14
F6.619355271632644
sg15
I00
sg16
I147
sg17
I37
sbs(I143
I326
tp414
g0
(g10
g2
Ntp415
Rp416
(dp417
g14
F-7.68224778292534
sg15
I01
sg16
I326
sg17
I143
sbs(I58
I68
tp418
g0
(g10
g2
Ntp419
Rp420
(dp421
g14
F7.214406624136129
sg15
I01
sg16
I68
sg17
I58
sbs(I41
I115
tp422
g0
(g10
g2
Ntp423
Rp424
(dp425
g14
F1.3618157439047514
sg15
I01
sg16
I115
sg17
I41
sbs(I216
I277
tp426
g0
(g10
g2
Ntp427
Rp428
(dp429
g14
F-3.064950602873413
sg15
I01
sg16
I277
sg17
I216
sbs(I52
I215
tp430
g0
(g10
g2
Ntp431
Rp432
(dp433
g14
F2.820087198496765
sg15
I01
sg16
I215
sg17
I52
sbs(I145
I102
tp434
g0
(g10
g2
Ntp435
Rp436
(dp437
g14
F-4.088196550629713
sg15
I01
sg16
I102
sg17
I145
sbs(I292
I275
tp438
g0
(g10
g2
Ntp439
Rp440
(dp441
g14
F4.529664784594513
sg15
I01
sg16
I275
sg17
I292
sbs(I27
I70
tp442
g0
(g10
g2
Ntp443
Rp444
(dp445
g14
F1.2450643815030449
sg15
I00
sg16
I70
sg17
I27
sbs(I103
I158
tp446
g0
(g10
g2
Ntp447
Rp448
(dp449
g14
F-2.61922796451772
sg15
I00
sg16
I158
sg17
I103
sbs(I99
I70
tp450
g0
(g10
g2
Ntp451
Rp452
(dp453
g14
F-1.0854726536860784
sg15
I01
sg16
I70
sg17
I99
sbs(I216
I289
tp454
g0
(g10
g2
Ntp455
Rp456
(dp457
g14
F0.09963673666134587
sg15
I01
sg16
I289
sg17
I216
sbs(I153
I87
tp458
g0
(g10
g2
Ntp459
Rp460
(dp461
g14
F2.297215295943738
sg15
I01
sg16
I87
sg17
I153
sbs(I237
I88
tp462
g0
(g10
g2
Ntp463
Rp464
(dp465
g14
F-2.927039133909186
sg15
I00
sg16
I88
sg17
I237
sbs(I206
I87
tp466
g0
(g10
g2
Ntp467
Rp468
(dp469
g14
F8.61150930371549
sg15
I00
sg16
I87
sg17
I206
sbs(I231
I230
tp470
g0
(g10
g2
Ntp471
Rp472
(dp473
g14
F-1.1444417071034532
sg15
I00
sg16
I230
sg17
I231
sbs(I3
I126
tp474
g0
(g10
g2
Ntp475
Rp476
(dp477
g14
F6.565600831849333
sg15
I00
sg16
I126
sg17
I3
sbs(I135
I185
tp478
g0
(g10
g2
Ntp479
Rp480
(dp481
g14
F-7.6348900950578855
sg15
I00
sg16
I185
sg17
I135
sbs(I338
I71
tp482
g0
(g10
g2
Ntp483
Rp484
(dp485
g14
F7.128602131732208
sg15
I01
sg16
I71
sg17
I338
sbs(I147
I239
tp486
g0
(g10
g2
Ntp487
Rp488
(dp489
g14
F-0.6584103999494542
sg15
I00
sg16
I239
sg17
I147
sbs(I15
I137
tp490
g0
(g10
g2
Ntp491
Rp492
(dp493
g14
F12.030898652885908
sg15
I00
sg16
I137
sg17
I15
sbs(I132
I224
tp494
g0
(g10
g2
Ntp495
Rp496
(dp497
g14
F-10.205729447488606
sg15
I01
sg16
I224
sg17
I132
sbs(I290
I187
tp498
g0
(g10
g2
Ntp499
Rp500
(dp501
g14
F-2.152801949129194
sg15
I01
sg16
I187
sg17
I290
sbs(I10
I73
tp502
g0
(g10
g2
Ntp503
Rp504
(dp505
g14
F-2.210101491590008
sg15
I00
sg16
I73
sg17
I10
sbs(I129
I259
tp506
g0
(g10
g2
Ntp507
Rp508
(dp509
g14
F-1.3147701051014233
sg15
I00
sg16
I259
sg17
I129
sbs(I95
I75
tp510
g0
(g10
g2
Ntp511
Rp512
(dp513
g14
F-5.762559916535269
sg15
I00
sg16
I75
sg17
I95
sbs(I40
I150
tp514
g0
(g10
g2
Ntp515
Rp516
(dp517
g14
F4.0707823563572845
sg15
I00
sg16
I150
sg17
I40
sbs(I147
I66
tp518
g0
(g10
g2
Ntp519
Rp520
(dp521
g14
F-4.353480939366038
sg15
I00
sg16
I66
sg17
I147
sbs(I15
I93
tp522
g0
(g10
g2
Ntp523
Rp524
(dp525
g14
F4.273407509947267
sg15
I00
sg16
I93
sg17
I15
sbs(I296
I70
tp526
g0
(g10
g2
Ntp527
Rp528
(dp529
g14
F2.408580692988384
sg15
I00
sg16
I70
sg17
I296
sbs(I224
I126
tp530
g0
(g10
g2
Ntp531
Rp532
(dp533
g14
F-3.8746938302070792
sg15
I00
sg16
I126
sg17
I224
sbs(I24
I75
tp534
g0
(g10
g2
Ntp535
Rp536
(dp537
g14
F-0.9208893350424641
sg15
I01
sg16
I75
sg17
I24
sbs(I280
I245
tp538
g0
(g10
g2
Ntp539
Rp540
(dp541
g14
F1.2259419523968489
sg15
I00
sg16
I245
sg17
I280
sbs(I158
I345
tp542
g0
(g10
g2
Ntp543
Rp544
(dp545
g14
F0.27433110072984085
sg15
I01
sg16
I345
sg17
I158
sbs(I221
I113
tp546
g0
(g10
g2
Ntp547
Rp548
(dp549
g14
F1.570796450015489
sg15
I01
sg16
I113
sg17
I221
sbs(I121
I325
tp550
g0
(g10
g2
Ntp551
Rp552
(dp553
g14
F-5.604325977835913
sg15
I00
sg16
I325
sg17
I121
sbs(I248
I302
tp554
g0
(g10
g2
Ntp555
Rp556
(dp557
g14
F-2.2715221952307316
sg15
I00
sg16
I302
sg17
I248
sbs(I19
I237
tp558
g0
(g10
g2
Ntp559
Rp560
(dp561
g14
F-0.1347214802966925
sg15
I00
sg16
I237
sg17
I19
sbs(I325
I86
tp562
g0
(g10
g2
Ntp563
Rp564
(dp565
g14
F4.032833004216172
sg15
I00
sg16
I86
sg17
I325
sbs(I335
I336
tp566
g0
(g10
g2
Ntp567
Rp568
(dp569
g14
F-2.837579556216076
sg15
I00
sg16
I336
sg17
I335
sbs(I225
I66
tp570
g0
(g10
g2
Ntp571
Rp572
(dp573
g14
F-7.512735387661167
sg15
I00
sg16
I66
sg17
I225
sbs(I91
I65
tp574
g0
(g10
g2
Ntp575
Rp576
(dp577
g14
F-18.88565774695749
sg15
I00
sg16
I65
sg17
I91
sbs(I1
I182
tp578
g0
(g10
g2
Ntp579
Rp580
(dp581
g14
F0.6310124618731258
sg15
I01
sg16
I182
sg17
I1
sbs(I280
I167
tp582
g0
(g10
g2
Ntp583
Rp584
(dp585
g14
F-5.080445026744544
sg15
I00
sg16
I167
sg17
I280
sbs(I289
I277
tp586
g0
(g10
g2
Ntp587
Rp588
(dp589
g14
F5.1315575484949765
sg15
I01
sg16
I277
sg17
I289
sbs(I66
I117
tp590
g0
(g10
g2
Ntp591
Rp592
(dp593
g14
F-6.644306666046455
sg15
I01
sg16
I117
sg17
I66
sbs(I8
I64
tp594
g0
(g10
g2
Ntp595
Rp596
(dp597
g14
F-11.782519253984443
sg15
I00
sg16
I64
sg17
I8
sbs(I162
I151
tp598
g0
(g10
g2
Ntp599
Rp600
(dp601
g14
F0.9539495556202542
sg15
I01
sg16
I151
sg17
I162
sbs(I107
I65
tp602
g0
(g10
g2
Ntp603
Rp604
(dp605
g14
F5.705882750890734
sg15
I00
sg16
I65
sg17
I107
sbs(I27
I322
tp606
g0
(g10
g2
Ntp607
Rp608
(dp609
g14
F2.3148025953777744
sg15
I00
sg16
I322
sg17
I27
sbs(I121
I86
tp610
g0
(g10
g2
Ntp611
Rp612
(dp613
g14
F-3.721155196233757
sg15
I01
sg16
I86
sg17
I121
sbs(I15
I64
tp614
g0
(g10
g2
Ntp615
Rp616
(dp617
g14
F8.377495644107137
sg15
I00
sg16
I64
sg17
I15
sbs(I50
I68
tp618
g0
(g10
g2
Ntp619
Rp620
(dp621
g14
F7.717637192533348
sg15
I01
sg16
I68
sg17
I50
sbs(I19
I133
tp622
g0
(g10
g2
Ntp623
Rp624
(dp625
g14
F6.337569802621338
sg15
I00
sg16
I133
sg17
I19
sbs(I204
I191
tp626
g0
(g10
g2
Ntp627
Rp628
(dp629
g14
F4.864937079440761
sg15
I01
sg16
I191
sg17
I204
sbs(I352
I169
tp630
g0
(g10
g2
Ntp631
Rp632
(dp633
g14
F-7.363432459758978
sg15
I01
sg16
I169
sg17
I352
sbs(I21
I83
tp634
g0
(g10
g2
Ntp635
Rp636
(dp637
g14
F4.015691334663199
sg15
I00
sg16
I83
sg17
I21
sbs(I307
I190
tp638
g0
(g10
g2
Ntp639
Rp640
(dp641
g14
F8.201193290118994
sg15
I01
sg16
I190
sg17
I307
sbs(I285
I306
tp642
g0
(g10
g2
Ntp643
Rp644
(dp645
g14
F-3.2323707723090065
sg15
I00
sg16
I306
sg17
I285
sbs(I201
I65
tp646
g0
(g10
g2
Ntp647
Rp648
(dp649
g14
F-1.2636162322771032
sg15
I01
sg16
I65
sg17
I201
sbs(I51
I102
tp650
g0
(g10
g2
Ntp651
Rp652
(dp653
g14
F-1.992106181477363
sg15
I01
sg16
I102
sg17
I51
sbs(I95
I174
tp654
g0
(g10
g2
Ntp655
Rp656
(dp657
g14
F-3.807301619374837
sg15
I00
sg16
I174
sg17
I95
sbs(I265
I195
tp658
g0
(g10
g2
Ntp659
Rp660
(dp661
g14
F-6.661758774062765
sg15
I00
sg16
I195
sg17
I265
sbs(I298
I115
tp662
g0
(g10
g2
Ntp663
Rp664
(dp665
g14
F4.735814292759134
sg15
I01
sg16
I115
sg17
I298
sbs(I304
I98
tp666
g0
(g10
g2
Ntp667
Rp668
(dp669
g14
F6.217261167051407
sg15
I01
sg16
I98
sg17
I304
sbs(I182
I71
tp670
g0
(g10
g2
Ntp671
Rp672
(dp673
g14
F-10.262823993588995
sg15
I00
sg16
I71
sg17
I182
sbs(I87
I303
tp674
g0
(g10
g2
Ntp675
Rp676
(dp677
g14
F-1.1309782186366806
sg15
I00
sg16
I303
sg17
I87
sbs(I138
I155
tp678
g0
(g10
g2
Ntp679
Rp680
(dp681
g14
F6.344451234361225
sg15
I00
sg16
I155
sg17
I138
sbs(I17
I271
tp682
g0
(g10
g2
Ntp683
Rp684
(dp685
g14
F-0.43150825324670994
sg15
I00
sg16
I271
sg17
I17
sbs(I39
I111
tp686
g0
(g10
g2
Ntp687
Rp688
(dp689
g14
F-10.559587998627613
sg15
I00
sg16
I111
sg17
I39
sbs(I66
I255
tp690
g0
(g10
g2
Ntp691
Rp692
(dp693
g14
F-8.243602509600935
sg15
I00
sg16
I255
sg17
I66
sbs(I48
I77
tp694
g0
(g10
g2
Ntp695
Rp696
(dp697
g14
F9.959845729372033
sg15
I00
sg16
I77
sg17
I48
sbs(I95
I197
tp698
g0
(g10
g2
Ntp699
Rp700
(dp701
g14
F11.136639628567234
sg15
I01
sg16
I197
sg17
I95
sbs(I93
I266
tp702
g0
(g10
g2
Ntp703
Rp704
(dp705
g14
F-7.285167812935981
sg15
I01
sg16
I266
sg17
I93
sbs(I217
I121
tp706
g0
(g10
g2
Ntp707
Rp708
(dp709
g14
F-4.335272755617203
sg15
I00
sg16
I121
sg17
I217
sbs(I168
I65
tp710
g0
(g10
g2
Ntp711
Rp712
(dp713
g14
F-11.802870345589533
sg15
I01
sg16
I65
sg17
I168
sbs(I95
I120
tp714
g0
(g10
g2
Ntp715
Rp716
(dp717
g14
F-0.18193740388771085
sg15
I01
sg16
I120
sg17
I95
sbs(I76
I240
tp718
g0
(g10
g2
Ntp719
Rp720
(dp721
g14
F4.472745889985933
sg15
I00
sg16
I240
sg17
I76
sbs(I215
I121
tp722
g0
(g10
g2
Ntp723
Rp724
(dp725
g14
F2.487155649202672
sg15
I00
sg16
I121
sg17
I215
sbs(I214
I213
tp726
g0
(g10
g2
Ntp727
Rp728
(dp729
g14
F2.7123192741843987
sg15
I01
sg16
I213
sg17
I214
sbs(I215
I217
tp730
g0
(g10
g2
Ntp731
Rp732
(dp733
g14
F2.0402823617720074
sg15
I01
sg16
I217
sg17
I215
sbs(I52
I180
tp734
g0
(g10
g2
Ntp735
Rp736
(dp737
g14
F-1.870475519339684
sg15
I01
sg16
I180
sg17
I52
sbs(I179
I188
tp738
g0
(g10
g2
Ntp739
Rp740
(dp741
g14
F4.758512132254882
sg15
I00
sg16
I188
sg17
I179
sbs(I162
I92
tp742
g0
(g10
g2
Ntp743
Rp744
(dp745
g14
F-3.1345032419310863
sg15
I01
sg16
I92
sg17
I162
sbs(I253
I276
tp746
g0
(g10
g2
Ntp747
Rp748
(dp749
g14
F-2.5889947794391395
sg15
I00
sg16
I276
sg17
I253
sbs(I212
I197
tp750
g0
(g10
g2
Ntp751
Rp752
(dp753
g14
F-0.4036903730923351
sg15
I00
sg16
I197
sg17
I212
sbs(I66
I71
tp754
g0
(g10
g2
Ntp755
Rp756
(dp757
g14
F-5.312880020874749
sg15
I01
sg16
I71
sg17
I66
sbs(I280
I318
tp758
g0
(g10
g2
Ntp759
Rp760
(dp761
g14
F0.5924233316207921
sg15
I01
sg16
I318
sg17
I280
sbs(I227
I66
tp762
g0
(g10
g2
Ntp763
Rp764
(dp765
g14
F-6.188433071792666
sg15
I00
sg16
I66
sg17
I227
sbs(I178
I86
tp766
g0
(g10
g2
Ntp767
Rp768
(dp769
g14
F0.10694584025446052
sg15
I00
sg16
I86
sg17
I178
sbs(I152
I157
tp770
g0
(g10
g2
Ntp771
Rp772
(dp773
g14
F-4.246276341443152
sg15
I01
sg16
I157
sg17
I152
sbs(I270
I69
tp774
g0
(g10
g2
Ntp775
Rp776
(dp777
g14
F1.570846339936456
sg15
I01
sg16
I69
sg17
I270
sbs(I41
I111
tp778
g0
(g10
g2
Ntp779
Rp780
(dp781
g14
F-4.153695064303062
sg15
I00
sg16
I111
sg17
I41
sbs(I136
I224
tp782
g0
(g10
g2
Ntp783
Rp784
(dp785
g14
F-6.559316699747792
sg15
I01
sg16
I224
sg17
I136
sbs(I296
I329
tp786
g0
(g10
g2
Ntp787
Rp788
(dp789
g14
F4.719155007532801
sg15
I00
sg16
I329
sg17
I296
sbs(I292
I311
tp790
g0
(g10
g2
Ntp791
Rp792
(dp793
g14
F-7.599825230808836
sg15
I00
sg16
I311
sg17
I292
sbs(I85
I74
tp794
g0
(g10
g2
Ntp795
Rp796
(dp797
g14
F7.839382810391622
sg15
I00
sg16
I74
sg17
I85
sbs(I257
I65
tp798
g0
(g10
g2
Ntp799
Rp800
(dp801
g14
F3.9822736341327625
sg15
I01
sg16
I65
sg17
I257
sbs(I63
I193
tp802
g0
(g10
g2
Ntp803
Rp804
(dp805
g14
F4.568980865026374
sg15
I00
sg16
I193
sg17
I63
sbs(I238
I267
tp806
g0
(g10
g2
Ntp807
Rp808
(dp809
g14
F-2.4312030492155676
sg15
I01
sg16
I267
sg17
I238
sbs(I163
I121
tp810
g0
(g10
g2
Ntp811
Rp812
(dp813
g14
F-3.3468862711423277
sg15
I01
sg16
I121
sg17
I163
sbs(I329
I270
tp814
g0
(g10
g2
Ntp815
Rp816
(dp817
g14
F0.3379153699642061
sg15
I01
sg16
I270
sg17
I329
sbs(I161
I89
tp818
g0
(g10
g2
Ntp819
Rp820
(dp821
g14
F1.9585432640598532
sg15
I01
sg16
I89
sg17
I161
sbs(I260
I111
tp822
g0
(g10
g2
Ntp823
Rp824
(dp825
g14
F-2.6321947846103906
sg15
I01
sg16
I111
sg17
I260
sbs(I289
I155
tp826
g0
(g10
g2
Ntp827
Rp828
(dp829
g14
F-3.601990510006671
sg15
I00
sg16
I155
sg17
I289
sbs(I99
I209
tp830
g0
(g10
g2
Ntp831
Rp832
(dp833
g14
F4.703137623123849
sg15
I00
sg16
I209
sg17
I99
sbs(I67
I78
tp834
g0
(g10
g2
Ntp835
Rp836
(dp837
g14
F-5.553508906009343
sg15
I00
sg16
I78
sg17
I67
sbs(I328
I356
tp838
g0
(g10
g2
Ntp839
Rp840
(dp841
g14
F0.6067932189659658
sg15
I01
sg16
I356
sg17
I328
sbs(I29
I124
tp842
g0
(g10
g2
Ntp843
Rp844
(dp845
g14
F-5.0313910721936885
sg15
I01
sg16
I124
sg17
I29
sbs(I200
I176
tp846
g0
(g10
g2
Ntp847
Rp848
(dp849
g14
F-1.4136723470858754
sg15
I01
sg16
I176
sg17
I200
sbs(I40
I108
tp850
g0
(g10
g2
Ntp851
Rp852
(dp853
g14
F4.880379474729352
sg15
I01
sg16
I108
sg17
I40
sbs(I97
I304
tp854
g0
(g10
g2
Ntp855
Rp856
(dp857
g14
F-3.6966283770401027
sg15
I01
sg16
I304
sg17
I97
sbs(I314
I201
tp858
g0
(g10
g2
Ntp859
Rp860
(dp861
g14
F1.5886128026401924
sg15
I01
sg16
I201
sg17
I314
sbs(I274
I250
tp862
g0
(g10
g2
Ntp863
Rp864
(dp865
g14
F7.871041030703326
sg15
I00
sg16
I250
sg17
I274
sbs(I41
I260
tp866
g0
(g10
g2
Ntp867
Rp868
(dp869
g14
F9.092919133224456
sg15
I01
sg16
I260
sg17
I41
sbs(I124
I173
tp870
g0
(g10
g2
Ntp871
Rp872
(dp873
g14
F-0.7977453446542662
sg15
I01
sg16
I173
sg17
I124
sbs(I52
I178
tp874
g0
(g10
g2
Ntp875
Rp876
(dp877
g14
F-1.8718502354896958
sg15
I01
sg16
I178
sg17
I52
sbs(I193
I65
tp878
g0
(g10
g2
Ntp879
Rp880
(dp881
g14
F3.073760649815363
sg15
I01
sg16
I65
sg17
I193
sbs(I140
I149
tp882
g0
(g10
g2
Ntp883
Rp884
(dp885
g14
F-3.658911734662366
sg15
I01
sg16
I149
sg17
I140
sbs(I321
I215
tp886
g0
(g10
g2
Ntp887
Rp888
(dp889
g14
F3.690097315021151
sg15
I01
sg16
I215
sg17
I321
sbs(I296
I342
tp890
g0
(g10
g2
Ntp891
Rp892
(dp893
g14
F3.3852219908116927
sg15
I00
sg16
I342
sg17
I296
sbs(I152
I357
tp894
g0
(g10
g2
Ntp895
Rp896
(dp897
g14
F0.40299567062977526
sg15
I00
sg16
I357
sg17
I152
sbs(I104
I126
tp898
g0
(g10
g2
Ntp899
Rp900
(dp901
g14
F-0.9876361105284467
sg15
I01
sg16
I126
sg17
I104
sbs(I246
I71
tp902
g0
(g10
g2
Ntp903
Rp904
(dp905
g14
F-2.6533079353546487
sg15
I01
sg16
I71
sg17
I246
sbs(I15
I69
tp906
g0
(g10
g2
Ntp907
Rp908
(dp909
g14
F3.955667073521725
sg15
I00
sg16
I69
sg17
I15
sbs(I118
I191
tp910
g0
(g10
g2
Ntp911
Rp912
(dp913
g14
F-6.8195654498819565
sg15
I01
sg16
I191
sg17
I118
sbs(I4
I190
tp914
g0
(g10
g2
Ntp915
Rp916
(dp917
g14
F4.613607121729126
sg15
I01
sg16
I190
sg17
I4
sbs(I283
I150
tp918
g0
(g10
g2
Ntp919
Rp920
(dp921
g14
F4.61574856478727
sg15
I01
sg16
I150
sg17
I283
sbs(I50
I192
tp922
g0
(g10
g2
Ntp923
Rp924
(dp925
g14
F-2.7709654268823933
sg15
I00
sg16
I192
sg17
I50
sbs(I226
I264
tp926
g0
(g10
g2
Ntp927
Rp928
(dp929
g14
F4.81904386800602
sg15
I01
sg16
I264
sg17
I226
sbs(I78
I341
tp930
g0
(g10
g2
Ntp931
Rp932
(dp933
g14
F10.780691420940967
sg15
I01
sg16
I341
sg17
I78
sbs(I19
I74
tp934
g0
(g10
g2
Ntp935
Rp936
(dp937
g14
F-7.062281832797624
sg15
I00
sg16
I74
sg17
I19
sbs(I19
I85
tp938
g0
(g10
g2
Ntp939
Rp940
(dp941
g14
F-5.819580722181301
sg15
I01
sg16
I85
sg17
I19
sbs(I94
I71
tp942
g0
(g10
g2
Ntp943
Rp944
(dp945
g14
F-7.66072787031566
sg15
I01
sg16
I71
sg17
I94
sbs(I179
I199
tp946
g0
(g10
g2
Ntp947
Rp948
(dp949
g14
F-2.0932556581203134
sg15
I00
sg16
I199
sg17
I179
sbs(I254
I66
tp950
g0
(g10
g2
Ntp951
Rp952
(dp953
g14
F-4.946597532708811
sg15
I00
sg16
I66
sg17
I254
sbs(I95
I304
tp954
g0
(g10
g2
Ntp955
Rp956
(dp957
g14
F-12.103310509132166
sg15
I00
sg16
I304
sg17
I95
sbs(I218
I66
tp958
g0
(g10
g2
Ntp959
Rp960
(dp961
g14
F-0.16187400408393
sg15
I01
sg16
I66
sg17
I218
sbs(I351
I118
tp962
g0
(g10
g2
Ntp963
Rp964
(dp965
g14
F-3.866558292679579
sg15
I01
sg16
I118
sg17
I351
sbs(I39
I112
tp966
g0
(g10
g2
Ntp967
Rp968
(dp969
g14
F4.399602223320137
sg15
I01
sg16
I112
sg17
I39
sbs(I93
I99
tp970
g0
(g10
g2
Ntp971
Rp972
(dp973
g14
F3.90726327657605
sg15
I01
sg16
I99
sg17
I93
sbs(I36
I255
tp974
g0
(g10
g2
Ntp975
Rp976
(dp977
g14
F2.663547127146407
sg15
I01
sg16
I255
sg17
I36
sbs(I52
I324
tp978
g0
(g10
g2
Ntp979
Rp980
(dp981
g14
F1.7788610664030096
sg15
I01
sg16
I324
sg17
I52
sbs(I346
I89
tp982
g0
(g10
g2
Ntp983
Rp984
(dp985
g14
F-4.6011746397678905
sg15
I01
sg16
I89
sg17
I346
sbs(I344
I287
tp986
g0
(g10
g2
Ntp987
Rp988
(dp989
g14
F1.7327261574710169
sg15
I01
sg16
I287
sg17
I344
sbs(I39
I164
tp990
g0
(g10
g2
Ntp991
Rp992
(dp993
g14
F7.2320030830040825
sg15
I00
sg16
I164
sg17
I39
sbs(I282
I136
tp994
g0
(g10
g2
Ntp995
Rp996
(dp997
g14
F-0.4638601286896389
sg15
I00
sg16
I136
sg17
I282
sbs(I128
I95
tp998
g0
(g10
g2
Ntp999
Rp1000
(dp1001
g14
F-1.6108013082263866
sg15
I00
sg16
I95
sg17
I128
sbs(I19
I244
tp1002
g0
(g10
g2
Ntp1003
Rp1004
(dp1005
g14
F13.045163407877533
sg15
I01
sg16
I244
sg17
I19
sbs(I237
I310
tp1006
g0
(g10
g2
Ntp1007
Rp1008
(dp1009
g14
F9.34719904091735
sg15
I01
sg16
I310
sg17
I237
sbs(I57
I125
tp1010
g0
(g10
g2
Ntp1011
Rp1012
(dp1013
g14
F-4.678403295453329
sg15
I00
sg16
I125
sg17
I57
sbs(I357
I337
tp1014
g0
(g10
g2
Ntp1015
Rp1016
(dp1017
g14
F-5.983502797500056
sg15
I01
sg16
I337
sg17
I357
sbs(I27
I257
tp1018
g0
(g10
g2
Ntp1019
Rp1020
(dp1021
g14
F-0.10227252945827903
sg15
I01
sg16
I257
sg17
I27
sbs(I350
I111
tp1022
g0
(g10
g2
Ntp1023
Rp1024
(dp1025
g14
F-2.239940737307288
sg15
I01
sg16
I111
sg17
I350
sbs(I162
I265
tp1026
g0
(g10
g2
Ntp1027
Rp1028
(dp1029
g14
F0.5312124240533239
sg15
I00
sg16
I265
sg17
I162
sbs(I51
I290
tp1030
g0
(g10
g2
Ntp1031
Rp1032
(dp1033
g14
F1.623273275931048
sg15
I01
sg16
I290
sg17
I51
sbs(I80
I64
tp1034
g0
(g10
g2
Ntp1035
Rp1036
(dp1037
g14
F1.929943987965153
sg15
I00
sg16
I64
sg17
I80
sbs(I144
I71
tp1038
g0
(g10
g2
Ntp1039
Rp1040
(dp1041
g14
F-4.737547838248113
sg15
I01
sg16
I71
sg17
I144
sbs(I50
I99
tp1042
g0
(g10
g2
Ntp1043
Rp1044
(dp1045
g14
F4.574374509708415
sg15
I01
sg16
I99
sg17
I50
sbs(I311
I195
tp1046
g0
(g10
g2
Ntp1047
Rp1048
(dp1049
g14
F-7.035514832327818
sg15
I00
sg16
I195
sg17
I311
sbs(I17
I259
tp1050
g0
(g10
g2
Ntp1051
Rp1052
(dp1053
g14
F-8.522567330200841
sg15
I00
sg16
I259
sg17
I17
sbs(I48
I85
tp1054
g0
(g10
g2
Ntp1055
Rp1056
(dp1057
g14
F-5.546176520519987
sg15
I00
sg16
I85
sg17
I48
sbs(I232
I71
tp1058
g0
(g10
g2
Ntp1059
Rp1060
(dp1061
g14
F0.9592988502820159
sg15
I01
sg16
I71
sg17
I232
sbs(I182
I139
tp1062
g0
(g10
g2
Ntp1063
Rp1064
(dp1065
g14
F-2.787971518554639
sg15
I00
sg16
I139
sg17
I182
sbs(I85
I268
tp1066
g0
(g10
g2
Ntp1067
Rp1068
(dp1069
g14
F2.893649040699418
sg15
I01
sg16
I268
sg17
I85
sbs(I4
I307
tp1070
g0
(g10
g2
Ntp1071
Rp1072
(dp1073
g14
F-2.809688238838339
sg15
I00
sg16
I307
sg17
I4
sbs(I19
I88
tp1074
g0
(g10
g2
Ntp1075
Rp1076
(dp1077
g14
F5.042267987535063
sg15
I00
sg16
I88
sg17
I19
sbs(I153
I288
tp1078
g0
(g10
g2
Ntp1079
Rp1080
(dp1081
g14
F8.613605946278296
sg15
I01
sg16
I288
sg17
I153
sbs(I63
I148
tp1082
g0
(g10
g2
Ntp1083
Rp1084
(dp1085
g14
F-2.3473567599245673
sg15
I00
sg16
I148
sg17
I63
sbs(I117
I71
tp1086
g0
(g10
g2
Ntp1087
Rp1088
(dp1089
g14
F-9.231832913586963
sg15
I01
sg16
I71
sg17
I117
sbs(I3
I228
tp1090
g0
(g10
g2
Ntp1091
Rp1092
(dp1093
g14
F-2.7478808487852358
sg15
I01
sg16
I228
sg17
I3
sbs(I95
I191
tp1094
g0
(g10
g2
Ntp1095
Rp1096
(dp1097
g14
F-2.070796596971726
sg15
I00
sg16
I191
sg17
I95
sbs(I267
I71
tp1098
g0
(g10
g2
Ntp1099
Rp1100
(dp1101
g14
F0.08334914947904234
sg15
I01
sg16
I71
sg17
I267
sbs(I248
I147
tp1102
g0
(g10
g2
Ntp1103
Rp1104
(dp1105
g14
F4.290838885896902
sg15
I00
sg16
I147
sg17
I248
sbs(I240
I336
tp1106
g0
(g10
g2
Ntp1107
Rp1108
(dp1109
g14
F2.34592294729047
sg15
I01
sg16
I336
sg17
I240
sbs(I52
I181
tp1110
g0
(g10
g2
Ntp1111
Rp1112
(dp1113
g14
F6.742941178799248
sg15
I01
sg16
I181
sg17
I52
sbs(I301
I229
tp1114
g0
(g10
g2
Ntp1115
Rp1116
(dp1117
g14
F-4.453310527278051
sg15
I00
sg16
I229
sg17
I301
sbs(I106
I79
tp1118
g0
(g10
g2
Ntp1119
Rp1120
(dp1121
g14
F3.6219229073946
sg15
I01
sg16
I79
sg17
I106
sbs(I37
I249
tp1122
g0
(g10
g2
Ntp1123
Rp1124
(dp1125
g14
F-2.2880491089057573
sg15
I00
sg16
I249
sg17
I37
sbs(I109
I85
tp1126
g0
(g10
g2
Ntp1127
Rp1128
(dp1129
g14
F7.9213260360541495
sg15
I00
sg16
I85
sg17
I109
sbs(I174
I75
tp1130
g0
(g10
g2
Ntp1131
Rp1132
(dp1133
g14
F-1.9244539013659692
sg15
I00
sg16
I75
sg17
I174
sbs(I198
I68
tp1134
g0
(g10
g2
Ntp1135
Rp1136
(dp1137
g14
F-2.3632207933685194
sg15
I00
sg16
I68
sg17
I198
sbs(I27
I90
tp1138
g0
(g10
g2
Ntp1139
Rp1140
(dp1141
g14
F-6.576295194300405
sg15
I01
sg16
I90
sg17
I27
sbs(I150
I343
tp1142
g0
(g10
g2
Ntp1143
Rp1144
(dp1145
g14
F-13.504567327313481
sg15
I01
sg16
I343
sg17
I150
sbs(I97
I78
tp1146
g0
(g10
g2
Ntp1147
Rp1148
(dp1149
g14
F1.1772283582253822
sg15
I01
sg16
I78
sg17
I97
sbs(I6
I213
tp1150
g0
(g10
g2
Ntp1151
Rp1152
(dp1153
g14
F2.849898733140229
sg15
I00
sg16
I213
sg17
I6
sbs(I28
I303
tp1154
g0
(g10
g2
Ntp1155
Rp1156
(dp1157
g14
F10.738044641951543
sg15
I01
sg16
I303
sg17
I28
sbs(I41
I350
tp1158
g0
(g10
g2
Ntp1159
Rp1160
(dp1161
g14
F4.643707436971537
sg15
I01
sg16
I350
sg17
I41
sbs(I253
I218
tp1162
g0
(g10
g2
Ntp1163
Rp1164
(dp1165
g14
F-1.5058942690303119
sg15
I00
sg16
I218
sg17
I253
sbs(I189
I69
tp1166
g0
(g10
g2
Ntp1167
Rp1168
(dp1169
g14
F-2.4001062147293464
sg15
I00
sg16
I69
sg17
I189
sbs(I266
I99
tp1170
g0
(g10
g2
Ntp1171
Rp1172
(dp1173
g14
F-1.92652826072358
sg15
I00
sg16
I99
sg17
I266
sbs(I94
I66
tp1174
g0
(g10
g2
Ntp1175
Rp1176
(dp1177
g14
F-1.2017323203190038
sg15
I00
sg16
I66
sg17
I94
sbs(I205
I69
tp1178
g0
(g10
g2
Ntp1179
Rp1180
(dp1181
g14
F1.0075084469163662
sg15
I00
sg16
I69
sg17
I205
sbs(I297
I252
tp1182
g0
(g10
g2
Ntp1183
Rp1184
(dp1185
g14
F4.254468134762821
sg15
I01
sg16
I252
sg17
I297
sbs(I62
I144
tp1186
g0
(g10
g2
Ntp1187
Rp1188
(dp1189
g14
F6.96277986296151
sg15
I01
sg16
I144
sg17
I62
sbs(I94
I100
tp1190
g0
(g10
g2
Ntp1191
Rp1192
(dp1193
g14
F-0.1573649992814058
sg15
I00
sg16
I100
sg17
I94
sbs(I48
I109
tp1194
g0
(g10
g2
Ntp1195
Rp1196
(dp1197
g14
F-1.596004736285258
sg15
I01
sg16
I109
sg17
I48
sbs(I69
I126
tp1198
g0
(g10
g2
Ntp1199
Rp1200
(dp1201
g14
F1.3174419213812611
sg15
I00
sg16
I126
sg17
I69
sbs(I139
I229
tp1202
g0
(g10
g2
Ntp1203
Rp1204
(dp1205
g14
F-0.48495023167652634
sg15
I01
sg16
I229
sg17
I139
sbs(I185
I211
tp1206
g0
(g10
g2
Ntp1207
Rp1208
(dp1209
g14
F8.066517307111821
sg15
I01
sg16
I211
sg17
I185
sbs(I173
I71
tp1210
g0
(g10
g2
Ntp1211
Rp1212
(dp1213
g14
F4.687318386651219
sg15
I01
sg16
I71
sg17
I173
sbs(I287
I88
tp1214
g0
(g10
g2
Ntp1215
Rp1216
(dp1217
g14
F10.552407189459677
sg15
I00
sg16
I88
sg17
I287
sbs(I15
I71
tp1218
g0
(g10
g2
Ntp1219
Rp1220
(dp1221
g14
F-3.1626908307965254
sg15
I00
sg16
I71
sg17
I15
sbs(I142
I84
tp1222
g0
(g10
g2
Ntp1223
Rp1224
(dp1225
g14
F-0.6578992742352741
sg15
I01
sg16
I84
sg17
I142
sbs(I40
I283
tp1226
g0
(g10
g2
Ntp1227
Rp1228
(dp1229
g14
F-6.790612423346429
sg15
I01
sg16
I283
sg17
I40
sbs(I20
I251
tp1230
g0
(g10
g2
Ntp1231
Rp1232
(dp1233
g14
F-3.4596536157061024
sg15
I01
sg16
I251
sg17
I20
sbs(I290
I115
tp1234
g0
(g10
g2
Ntp1235
Rp1236
(dp1237
g14
F3.0136604485214744
sg15
I01
sg16
I115
sg17
I290
sbs(I277
I309
tp1238
g0
(g10
g2
Ntp1239
Rp1240
(dp1241
g14
F2.9651545347332897
sg15
I01
sg16
I309
sg17
I277
sbs(I14
I133
tp1242
g0
(g10
g2
Ntp1243
Rp1244
(dp1245
g14
F-3.024590742198542
sg15
I01
sg16
I133
sg17
I14
sbs(I3
I107
tp1246
g0
(g10
g2
Ntp1247
Rp1248
(dp1249
g14
F3.773825181987295
sg15
I01
sg16
I107
sg17
I3
sbs(I83
I133
tp1250
g0
(g10
g2
Ntp1251
Rp1252
(dp1253
g14
F-0.5413782003473262
sg15
I00
sg16
I133
sg17
I83
sbs(I139
I183
tp1254
g0
(g10
g2
Ntp1255
Rp1256
(dp1257
g14
F8.142238969222841
sg15
I01
sg16
I183
sg17
I139
sbs(I192
I196
tp1258
g0
(g10
g2
Ntp1259
Rp1260
(dp1261
g14
F1.5919197676955263
sg15
I01
sg16
I196
sg17
I192
sbs(I27
I133
tp1262
g0
(g10
g2
Ntp1263
Rp1264
(dp1265
g14
F-3.2579967869981994
sg15
I01
sg16
I133
sg17
I27
sbs(I6
I113
tp1266
g0
(g10
g2
Ntp1267
Rp1268
(dp1269
g14
F-0.5150467224897172
sg15
I00
sg16
I113
sg17
I6
sbs(I3
I113
tp1270
g0
(g10
g2
Ntp1271
Rp1272
(dp1273
g14
F0.004756386856466954
sg15
I00
sg16
I113
sg17
I3
sbs(I216
I74
tp1274
g0
(g10
g2
Ntp1275
Rp1276
(dp1277
g14
F-2.035782320276674
sg15
I00
sg16
I74
sg17
I216
sbs(I165
I136
tp1278
g0
(g10
g2
Ntp1279
Rp1280
(dp1281
g14
F-5.745195250198856
sg15
I00
sg16
I136
sg17
I165
sbs(I45
I65
tp1282
g0
(g10
g2
Ntp1283
Rp1284
(dp1285
g14
F1.2433530974218256
sg15
I01
sg16
I65
sg17
I45
sbs(I17
I230
tp1286
g0
(g10
g2
Ntp1287
Rp1288
(dp1289
g14
F-1.9180570645508463
sg15
I00
sg16
I230
sg17
I17
sbs(I251
I76
tp1290
g0
(g10
g2
Ntp1291
Rp1292
(dp1293
g14
F1.7963570137469673
sg15
I01
sg16
I76
sg17
I251
sbs(I59
I294
tp1294
g0
(g10
g2
Ntp1295
Rp1296
(dp1297
g14
F-9.299537037834211
sg15
I00
sg16
I294
sg17
I59
sbs(I330
I65
tp1298
g0
(g10
g2
Ntp1299
Rp1300
(dp1301
g14
F2.5526496433557777
sg15
I01
sg16
I65
sg17
I330
sbs(I258
I226
tp1302
g0
(g10
g2
Ntp1303
Rp1304
(dp1305
g14
F0.16844866860407057
sg15
I00
sg16
I226
sg17
I258
sbs(I208
I76
tp1306
g0
(g10
g2
Ntp1307
Rp1308
(dp1309
g14
F4.179288717134059
sg15
I00
sg16
I76
sg17
I208
sbs(I103
I102
tp1310
g0
(g10
g2
Ntp1311
Rp1312
(dp1313
g14
F1.4418142274994146
sg15
I01
sg16
I102
sg17
I103
sbs(I153
I192
tp1314
g0
(g10
g2
Ntp1315
Rp1316
(dp1317
g14
F-5.762748152428699
sg15
I01
sg16
I192
sg17
I153
sbs(I267
I148
tp1318
g0
(g10
g2
Ntp1319
Rp1320
(dp1321
g14
F-0.5021025427178515
sg15
I01
sg16
I148
sg17
I267
sbs(I315
I265
tp1322
g0
(g10
g2
Ntp1323
Rp1324
(dp1325
g14
F-1.1260880049398496
sg15
I00
sg16
I265
sg17
I315
sbs(I25
I311
tp1326
g0
(g10
g2
Ntp1327
Rp1328
(dp1329
g14
F5.098298476405029
sg15
I00
sg16
I311
sg17
I25
sbs(I153
I234
tp1330
g0
(g10
g2
Ntp1331
Rp1332
(dp1333
g14
F-5.785191837945112
sg15
I01
sg16
I234
sg17
I153
sbs(I101
I191
tp1334
g0
(g10
g2
Ntp1335
Rp1336
(dp1337
g14
F2.280625731521586
sg15
I00
sg16
I191
sg17
I101
sbs(I179
I71
tp1338
g0
(g10
g2
Ntp1339
Rp1340
(dp1341
g14
F2.0213452758612562
sg15
I01
sg16
I71
sg17
I179
sbs(I70
I66
tp1342
g0
(g10
g2
Ntp1343
Rp1344
(dp1345
g14
F5.484936419509542
sg15
I00
sg16
I66
sg17
I70
sbs(I356
I280
tp1346
g0
(g10
g2
Ntp1347
Rp1348
(dp1349
g14
F5.408335405598693
sg15
I01
sg16
I280
sg17
I356
sbs(I358
I108
tp1350
g0
(g10
g2
Ntp1351
Rp1352
(dp1353
g14
F1.3472927054224901
sg15
I01
sg16
I108
sg17
I358
sbs(I156
I121
tp1354
g0
(g10
g2
Ntp1355
Rp1356
(dp1357
g14
F-1.6767933146617158
sg15
I01
sg16
I121
sg17
I156
sbs(I18
I118
tp1358
g0
(g10
g2
Ntp1359
Rp1360
(dp1361
g14
F-0.10978040411098205
sg15
I01
sg16
I118
sg17
I18
sbs(I61
I232
tp1362
g0
(g10
g2
Ntp1363
Rp1364
(dp1365
g14
F0.9002110696302383
sg15
I00
sg16
I232
sg17
I61
sbs(I145
I103
tp1366
g0
(g10
g2
Ntp1367
Rp1368
(dp1369
g14
F4.303620881911928
sg15
I00
sg16
I103
sg17
I145
sbs(I205
I270
tp1370
g0
(g10
g2
Ntp1371
Rp1372
(dp1373
g14
F4.601078543343348
sg15
I00
sg16
I270
sg17
I205
sbs(I152
I166
tp1374
g0
(g10
g2
Ntp1375
Rp1376
(dp1377
g14
F3.755048444218087
sg15
I01
sg16
I166
sg17
I152
sbs(I197
I204
tp1378
g0
(g10
g2
Ntp1379
Rp1380
(dp1381
g14
F-1.6827725126635
sg15
I00
sg16
I204
sg17
I197
sbs(I11
I93
tp1382
g0
(g10
g2
Ntp1383
Rp1384
(dp1385
g14
F7.203711815004849
sg15
I01
sg16
I93
sg17
I11
sbs(I25
I123
tp1386
g0
(g10
g2
Ntp1387
Rp1388
(dp1389
g14
F-6.553559072647881
sg15
I00
sg16
I123
sg17
I25
sbs(I32
I156
tp1390
g0
(g10
g2
Ntp1391
Rp1392
(dp1393
g14
F5.595203850948593
sg15
I01
sg16
I156
sg17
I32
sbs(I51
I115
tp1394
g0
(g10
g2
Ntp1395
Rp1396
(dp1397
g14
F-3.6480574503943415
sg15
I00
sg16
I115
sg17
I51
sbs(I175
I180
tp1398
g0
(g10
g2
Ntp1399
Rp1400
(dp1401
g14
F-2.1763723845373137
sg15
I01
sg16
I180
sg17
I175
sbs(I162
I203
tp1402
g0
(g10
g2
Ntp1403
Rp1404
(dp1405
g14
F3.1319066167845158
sg15
I00
sg16
I203
sg17
I162
sbs(I345
I102
tp1406
g0
(g10
g2
Ntp1407
Rp1408
(dp1409
g14
F-0.0821144793295503
sg15
I01
sg16
I102
sg17
I345
sbs(I233
I137
tp1410
g0
(g10
g2
Ntp1411
Rp1412
(dp1413
g14
F2.2475023963313627
sg15
I00
sg16
I137
sg17
I233
sbs(I155
I70
tp1414
g0
(g10
g2
Ntp1415
Rp1416
(dp1417
g14
F0.2774160394152704
sg15
I00
sg16
I70
sg17
I155
sbs(I4
I248
tp1418
g0
(g10
g2
Ntp1419
Rp1420
(dp1421
g14
F-4.678825175235887
sg15
I01
sg16
I248
sg17
I4
sbs(I84
I114
tp1422
g0
(g10
g2
Ntp1423
Rp1424
(dp1425
g14
F-0.4346997704540908
sg15
I00
sg16
I114
sg17
I84
sbs(I42
I99
tp1426
g0
(g10
g2
Ntp1427
Rp1428
(dp1429
g14
F4.286588281106812
sg15
I01
sg16
I99
sg17
I42
sbs(I20
I143
tp1430
g0
(g10
g2
Ntp1431
Rp1432
(dp1433
g14
F-2.381829009604736
sg15
I00
sg16
I143
sg17
I20
sbs(I116
I119
tp1434
g0
(g10
g2
Ntp1435
Rp1436
(dp1437
g14
F-3.7349483325703723
sg15
I00
sg16
I119
sg17
I116
sbs(I193
I219
tp1438
g0
(g10
g2
Ntp1439
Rp1440
(dp1441
g14
F2.712121606144941
sg15
I01
sg16
I219
sg17
I193
sbs(I20
I170
tp1442
g0
(g10
g2
Ntp1443
Rp1444
(dp1445
g14
F17.118591524908872
sg15
I00
sg16
I170
sg17
I20
sbs(I15
I82
tp1446
g0
(g10
g2
Ntp1447
Rp1448
(dp1449
g14
F-2.473926861672827
sg15
I01
sg16
I82
sg17
I15
sbs(I95
I212
tp1450
g0
(g10
g2
Ntp1451
Rp1452
(dp1453
g14
F1.355165425345712
sg15
I01
sg16
I212
sg17
I95
sbs(I280
I107
tp1454
g0
(g10
g2
Ntp1455
Rp1456
(dp1457
g14
F0.4031557613345841
sg15
I01
sg16
I107
sg17
I280
sbs(I59
I155
tp1458
g0
(g10
g2
Ntp1459
Rp1460
(dp1461
g14
F3.8428647023261306
sg15
I01
sg16
I155
sg17
I59
sbs(I52
I321
tp1462
g0
(g10
g2
Ntp1463
Rp1464
(dp1465
g14
F-7.006849889608097
sg15
I01
sg16
I321
sg17
I52
sbs(I56
I76
tp1466
g0
(g10
g2
Ntp1467
Rp1468
(dp1469
g14
F-1.1644379802573879
sg15
I01
sg16
I76
sg17
I56
sbs(I291
I245
tp1470
g0
(g10
g2
Ntp1471
Rp1472
(dp1473
g14
F-2.0169635421361174
sg15
I01
sg16
I245
sg17
I291
sbs(I235
I314
tp1474
g0
(g10
g2
Ntp1475
Rp1476
(dp1477
g14
F-3.16297466189413
sg15
I01
sg16
I314
sg17
I235
sbs(I299
I65
tp1478
g0
(g10
g2
Ntp1479
Rp1480
(dp1481
g14
F0.5073366056143097
sg15
I01
sg16
I65
sg17
I299
sbs(I341
I106
tp1482
g0
(g10
g2
Ntp1483
Rp1484
(dp1485
g14
F4.2709408797843365
sg15
I01
sg16
I106
sg17
I341
sbs(I14
I276
tp1486
g0
(g10
g2
Ntp1487
Rp1488
(dp1489
g14
F2.778483037843353
sg15
I00
sg16
I276
sg17
I14
sbs(I164
I162
tp1490
g0
(g10
g2
Ntp1491
Rp1492
(dp1493
g14
F-0.6443551956405031
sg15
I00
sg16
I162
sg17
I164
sbs(I97
I308
tp1494
g0
(g10
g2
Ntp1495
Rp1496
(dp1497
g14
F-2.783798649000781
sg15
I00
sg16
I308
sg17
I97
sbs(I78
I106
tp1498
g0
(g10
g2
Ntp1499
Rp1500
(dp1501
g14
F-0.6058652719670079
sg15
I00
sg16
I106
sg17
I78
sbs(I152
I113
tp1502
g0
(g10
g2
Ntp1503
Rp1504
(dp1505
g14
F3.99001688171606
sg15
I01
sg16
I113
sg17
I152
sbs(I62
I105
tp1506
g0
(g10
g2
Ntp1507
Rp1508
(dp1509
g14
F-6.067427695996283
sg15
I01
sg16
I105
sg17
I62
sbs(I15
I189
tp1510
g0
(g10
g2
Ntp1511
Rp1512
(dp1513
g14
F-6.647966381327424
sg15
I00
sg16
I189
sg17
I15
sbs(I96
I105
tp1514
g0
(g10
g2
Ntp1515
Rp1516
(dp1517
g14
F-4.127576350105871
sg15
I00
sg16
I105
sg17
I96
sbs(I86
I71
tp1518
g0
(g10
g2
Ntp1519
Rp1520
(dp1521
g14
F9.783856980200968
sg15
I00
sg16
I71
sg17
I86
sbs(I308
I78
tp1522
g0
(g10
g2
Ntp1523
Rp1524
(dp1525
g14
F0.8461734342024305
sg15
I01
sg16
I78
sg17
I308
sbs(I34
I71
tp1526
g0
(g10
g2
Ntp1527
Rp1528
(dp1529
g14
F0.027575167099532893
sg15
I01
sg16
I71
sg17
I34
sbs(I171
I71
tp1530
g0
(g10
g2
Ntp1531
Rp1532
(dp1533
g14
F-3.493582798851999
sg15
I00
sg16
I71
sg17
I171
sbs(I86
I226
tp1534
g0
(g10
g2
Ntp1535
Rp1536
(dp1537
g14
F4.287707013008801
sg15
I00
sg16
I226
sg17
I86
sbs(I207
I137
tp1538
g0
(g10
g2
Ntp1539
Rp1540
(dp1541
g14
F4.400478453689578
sg15
I00
sg16
I137
sg17
I207
sbs(I5
I280
tp1542
g0
(g10
g2
Ntp1543
Rp1544
(dp1545
g14
F3.588933251907657
sg15
I01
sg16
I280
sg17
I5
sbs(I203
I225
tp1546
g0
(g10
g2
Ntp1547
Rp1548
(dp1549
g14
F-5.015467108230529
sg15
I00
sg16
I225
sg17
I203
sbs(I284
I193
tp1550
g0
(g10
g2
Ntp1551
Rp1552
(dp1553
g14
F1.9172541450595932
sg15
I00
sg16
I193
sg17
I284
sbs(I74
I65
tp1554
g0
(g10
g2
Ntp1555
Rp1556
(dp1557
g14
F-9.788100712224061
sg15
I00
sg16
I65
sg17
I74
sbs(I247
I97
tp1558
g0
(g10
g2
Ntp1559
Rp1560
(dp1561
g14
F-3.3079788846140765
sg15
I00
sg16
I97
sg17
I247
sbs(I122
I71
tp1562
g0
(g10
g2
Ntp1563
Rp1564
(dp1565
g14
F2.574277585299738
sg15
I01
sg16
I71
sg17
I122
sbs(I348
I294
tp1566
g0
(g10
g2
Ntp1567
Rp1568
(dp1569
g14
F-2.254969729410351
sg15
I01
sg16
I294
sg17
I348
sbs(I76
I79
tp1570
g0
(g10
g2
Ntp1571
Rp1572
(dp1573
g14
F1.0512580284396167
sg15
I01
sg16
I79
sg17
I76
sbs(I166
I70
tp1574
g0
(g10
g2
Ntp1575
Rp1576
(dp1577
g14
F-1.018709561709398
sg15
I01
sg16
I70
sg17
I166
sbs(I57
I120
tp1578
g0
(g10
g2
Ntp1579
Rp1580
(dp1581
g14
F-5.00665587632172
sg15
I00
sg16
I120
sg17
I57
sbs(I149
I292
tp1582
g0
(g10
g2
Ntp1583
Rp1584
(dp1585
g14
F6.612630785756307
sg15
I01
sg16
I292
sg17
I149
sbs(I76
I273
tp1586
g0
(g10
g2
Ntp1587
Rp1588
(dp1589
g14
F1.4325942520113353
sg15
I00
sg16
I273
sg17
I76
sbs(I23
I75
tp1590
g0
(g10
g2
Ntp1591
Rp1592
(dp1593
g14
F1.953622428116586
sg15
I01
sg16
I75
sg17
I23
sbs(I94
I228
tp1594
g0
(g10
g2
Ntp1595
Rp1596
(dp1597
g14
F-1.6204621829030943
sg15
I01
sg16
I228
sg17
I94
sbs(I331
I269
tp1598
g0
(g10
g2
Ntp1599
Rp1600
(dp1601
g14
F0.6934696683896956
sg15
I01
sg16
I269
sg17
I331
sbs(I33
I66
tp1602
g0
(g10
g2
Ntp1603
Rp1604
(dp1605
g14
F2.1310891352230965
sg15
I00
sg16
I66
sg17
I33
sbs(I193
I213
tp1606
g0
(g10
g2
Ntp1607
Rp1608
(dp1609
g14
F-2.3526385778196834
sg15
I01
sg16
I213
sg17
I193
sbs(I111
I118
tp1610
g0
(g10
g2
Ntp1611
Rp1612
(dp1613
g14
F2.821608391823255
sg15
I00
sg16
I118
sg17
I111
sbs(I281
I75
tp1614
g0
(g10
g2
Ntp1615
Rp1616
(dp1617
g14
F3.2457522116297253
sg15
I00
sg16
I75
sg17
I281
sbs(I74
I132
tp1618
g0
(g10
g2
Ntp1619
Rp1620
(dp1621
g14
F1.5220598586151635
sg15
I01
sg16
I132
sg17
I74
sbs(I52
I163
tp1622
g0
(g10
g2
Ntp1623
Rp1624
(dp1625
g14
F2.374643106567997
sg15
I00
sg16
I163
sg17
I52
sbs(I296
I202
tp1626
g0
(g10
g2
Ntp1627
Rp1628
(dp1629
g14
F-0.565753388475645
sg15
I00
sg16
I202
sg17
I296
sbs(I240
I316
tp1630
g0
(g10
g2
Ntp1631
Rp1632
(dp1633
g14
F2.8224639023921108
sg15
I01
sg16
I316
sg17
I240
sbs(I114
I144
tp1634
g0
(g10
g2
Ntp1635
Rp1636
(dp1637
g14
F-1.1833300784771883
sg15
I00
sg16
I144
sg17
I114
sbs(I39
I74
tp1638
g0
(g10
g2
Ntp1639
Rp1640
(dp1641
g14
F-0.45608999611008905
sg15
I00
sg16
I74
sg17
I39
sbs(I4
I161
tp1642
g0
(g10
g2
Ntp1643
Rp1644
(dp1645
g14
F6.21231053053144
sg15
I00
sg16
I161
sg17
I4
sbs(I74
I68
tp1646
g0
(g10
g2
Ntp1647
Rp1648
(dp1649
g14
F-2.2330516322570197
sg15
I00
sg16
I68
sg17
I74
sbs(I169
I340
tp1650
g0
(g10
g2
Ntp1651
Rp1652
(dp1653
g14
F7.127375772169253
sg15
I01
sg16
I340
sg17
I169
sbs(I213
I65
tp1654
g0
(g10
g2
Ntp1655
Rp1656
(dp1657
g14
F-10.562917286900078
sg15
I00
sg16
I65
sg17
I213
sbs(I152
I208
tp1658
g0
(g10
g2
Ntp1659
Rp1660
(dp1661
g14
F18.67037999262338
sg15
I00
sg16
I208
sg17
I152
sbs(I355
I155
tp1662
g0
(g10
g2
Ntp1663
Rp1664
(dp1665
g14
F-1.3538298642815136
sg15
I01
sg16
I155
sg17
I355
sbs(I191
I236
tp1666
g0
(g10
g2
Ntp1667
Rp1668
(dp1669
g14
F6.316630406579952
sg15
I01
sg16
I236
sg17
I191
sbs(I272
I91
tp1670
g0
(g10
g2
Ntp1671
Rp1672
(dp1673
g14
F9.311269331402402
sg15
I00
sg16
I91
sg17
I272
sbs(I277
I74
tp1674
g0
(g10
g2
Ntp1675
Rp1676
(dp1677
g14
F10.619247969366809
sg15
I00
sg16
I74
sg17
I277
sbs(I336
I79
tp1678
g0
(g10
g2
Ntp1679
Rp1680
(dp1681
g14
F5.5918075257608395
sg15
I01
sg16
I79
sg17
I336
sbs(I58
I134
tp1682
g0
(g10
g2
Ntp1683
Rp1684
(dp1685
g14
F1.4073706578640501
sg15
I01
sg16
I134
sg17
I58
sbs(I140
I169
tp1686
g0
(g10
g2
Ntp1687
Rp1688
(dp1689
g14
F-8.638422575252722
sg15
I00
sg16
I169
sg17
I140
sbs(I52
I116
tp1690
g0
(g10
g2
Ntp1691
Rp1692
(dp1693
g14
F-0.7902391728937503
sg15
I01
sg16
I116
sg17
I52
sbs(I180
I121
tp1694
g0
(g10
g2
Ntp1695
Rp1696
(dp1697
g14
F-0.8137138592822446
sg15
I01
sg16
I121
sg17
I180
sbs(I152
I337
tp1698
g0
(g10
g2
Ntp1699
Rp1700
(dp1701
g14
F0.6239315749069463
sg15
I00
sg16
I337
sg17
I152
sbs(I39
I313
tp1702
g0
(g10
g2
Ntp1703
Rp1704
(dp1705
g14
F-6.54421160846919
sg15
I01
sg16
I313
sg17
I39
sbs(I280
I291
tp1706
g0
(g10
g2
Ntp1707
Rp1708
(dp1709
g14
F1.220462034738766
sg15
I01
sg16
I291
sg17
I280
sbs(I159
I87
tp1710
g0
(g10
g2
Ntp1711
Rp1712
(dp1713
g14
F4.0173974409361355
sg15
I01
sg16
I87
sg17
I159
sbs(I240
I79
tp1714
g0
(g10
g2
Ntp1715
Rp1716
(dp1717
g14
F-5.517543395092771
sg15
I00
sg16
I79
sg17
I240
sbs(I354
I66
tp1718
g0
(g10
g2
Ntp1719
Rp1720
(dp1721
g14
F7.538753822791125
sg15
I00
sg16
I66
sg17
I354
sbs(I86
I252
tp1722
g0
(g10
g2
Ntp1723
Rp1724
(dp1725
g14
F5.305368917697202
sg15
I00
sg16
I252
sg17
I86
sbs(I123
I259
tp1726
g0
(g10
g2
Ntp1727
Rp1728
(dp1729
g14
F1.1403397624824092
sg15
I00
sg16
I259
sg17
I123
sbs(I278
I254
tp1730
g0
(g10
g2
Ntp1731
Rp1732
(dp1733
g14
F-2.3392451958511424
sg15
I01
sg16
I254
sg17
I278
sbs(I92
I319
tp1734
g0
(g10
g2
Ntp1735
Rp1736
(dp1737
g14
F-2.512198925990197
sg15
I01
sg16
I319
sg17
I92
sbs(I292
I169
tp1738
g0
(g10
g2
Ntp1739
Rp1740
(dp1741
g14
F0.9915730994739737
sg15
I01
sg16
I169
sg17
I292
sbs(I94
I128
tp1742
g0
(g10
g2
Ntp1743
Rp1744
(dp1745
g14
F11.044038626756942
sg15
I01
sg16
I128
sg17
I94
sbs(I333
I78
tp1746
g0
(g10
g2
Ntp1747
Rp1748
(dp1749
g14
F4.893829076872499
sg15
I00
sg16
I78
sg17
I333
sbs(I288
I274
tp1750
g0
(g10
g2
Ntp1751
Rp1752
(dp1753
g14
F4.785122285304175
sg15
I01
sg16
I274
sg17
I288
sbs(I72
I95
tp1754
g0
(g10
g2
Ntp1755
Rp1756
(dp1757
g14
F-3.7927078976973334
sg15
I01
sg16
I95
sg17
I72
sbs(I124
I71
tp1758
g0
(g10
g2
Ntp1759
Rp1760
(dp1761
g14
F-4.971709052208203
sg15
I01
sg16
I71
sg17
I124
sbs(I20
I241
tp1762
g0
(g10
g2
Ntp1763
Rp1764
(dp1765
g14
F8.475358480672092
sg15
I01
sg16
I241
sg17
I20
sbs(I209
I81
tp1766
g0
(g10
g2
Ntp1767
Rp1768
(dp1769
g14
F2.8079907327577134
sg15
I01
sg16
I81
sg17
I209
sbs(I7
I116
tp1770
g0
(g10
g2
Ntp1771
Rp1772
(dp1773
g14
F1.6249034981034205
sg15
I01
sg16
I116
sg17
I7
sbs(I260
I253
tp1774
g0
(g10
g2
Ntp1775
Rp1776
(dp1777
g14
F2.0218010657381655
sg15
I01
sg16
I253
sg17
I260
sbs(I76
I162
tp1778
g0
(g10
g2
Ntp1779
Rp1780
(dp1781
g14
F3.5155463433796994
sg15
I01
sg16
I162
sg17
I76
sbs(I30
I65
tp1782
g0
(g10
g2
Ntp1783
Rp1784
(dp1785
g14
F-2.106610544995947
sg15
I00
sg16
I65
sg17
I30
sbs(I193
I91
tp1786
g0
(g10
g2
Ntp1787
Rp1788
(dp1789
g14
F-7.732944841422241
sg15
I00
sg16
I91
sg17
I193
sbs(I59
I245
tp1790
g0
(g10
g2
Ntp1791
Rp1792
(dp1793
g14
F5.175107395375511
sg15
I01
sg16
I245
sg17
I59
sbs(I152
I70
tp1794
g0
(g10
g2
Ntp1795
Rp1796
(dp1797
g14
F1.5680918033758215
sg15
I00
sg16
I70
sg17
I152
sbs(I203
I66
tp1798
g0
(g10
g2
Ntp1799
Rp1800
(dp1801
g14
F-9.306010620493787
sg15
I01
sg16
I66
sg17
I203
sbs(I54
I111
tp1802
g0
(g10
g2
Ntp1803
Rp1804
(dp1805
g14
F0.6455944960944907
sg15
I00
sg16
I111
sg17
I54
sbs(I66
I65
tp1806
g0
(g10
g2
Ntp1807
Rp1808
(dp1809
g14
F-1.5825403892947871
sg15
I01
sg16
I65
sg17
I66
sbs(I114
I71
tp1810
g0
(g10
g2
Ntp1811
Rp1812
(dp1813
g14
F5.714298773740211
sg15
I01
sg16
I71
sg17
I114
sbs(I239
I68
tp1814
g0
(g10
g2
Ntp1815
Rp1816
(dp1817
g14
F2.4988758896495686
sg15
I00
sg16
I68
sg17
I239
sbs(I342
I329
tp1818
g0
(g10
g2
Ntp1819
Rp1820
(dp1821
g14
F-3.9286452963670184
sg15
I01
sg16
I329
sg17
I342
sbs(I326
I146
tp1822
g0
(g10
g2
Ntp1823
Rp1824
(dp1825
g14
F0.4333728954861313
sg15
I01
sg16
I146
sg17
I326
sbs(I242
I265
tp1826
g0
(g10
g2
Ntp1827
Rp1828
(dp1829
g14
F-4.039377139511937
sg15
I00
sg16
I265
sg17
I242
sbs(I62
I100
tp1830
g0
(g10
g2
Ntp1831
Rp1832
(dp1833
g14
F-0.5623837086431388
sg15
I00
sg16
I100
sg17
I62
sbs(I17
I113
tp1834
g0
(g10
g2
Ntp1835
Rp1836
(dp1837
g14
F-2.4179861365263764
sg15
I01
sg16
I113
sg17
I17
sbs(I286
I331
tp1838
g0
(g10
g2
Ntp1839
Rp1840
(dp1841
g14
F1.0
sg15
I01
sg16
I331
sg17
I286
sbs(I148
I87
tp1842
g0
(g10
g2
Ntp1843
Rp1844
(dp1845
g14
F0.863105611656336
sg15
I01
sg16
I87
sg17
I148
sbs(I40
I151
tp1846
g0
(g10
g2
Ntp1847
Rp1848
(dp1849
g14
F-2.251287662948823
sg15
I01
sg16
I151
sg17
I40
sbs(I206
I281
tp1850
g0
(g10
g2
Ntp1851
Rp1852
(dp1853
g14
F0.22659494236654915
sg15
I00
sg16
I281
sg17
I206
sbs(I27
I199
tp1854
g0
(g10
g2
Ntp1855
Rp1856
(dp1857
g14
F12.909243524089975
sg15
I01
sg16
I199
sg17
I27
sbs(I210
I157
tp1858
g0
(g10
g2
Ntp1859
Rp1860
(dp1861
g14
F2.7221603526637814
sg15
I01
sg16
I157
sg17
I210
sbs(I19
I153
tp1862
g0
(g10
g2
Ntp1863
Rp1864
(dp1865
g14
F2.7615468362305253
sg15
I00
sg16
I153
sg17
I19
sbs(I162
I323
tp1866
g0
(g10
g2
Ntp1867
Rp1868
(dp1869
g14
F-5.318041301516122
sg15
I00
sg16
I323
sg17
I162
sbs(I43
I152
tp1870
g0
(g10
g2
Ntp1871
Rp1872
(dp1873
g14
F-1.4576470191801618
sg15
I01
sg16
I152
sg17
I43
sbs(I20
I146
tp1874
g0
(g10
g2
Ntp1875
Rp1876
(dp1877
g14
F1.4456379438007196
sg15
I01
sg16
I146
sg17
I20
sbs(I33
I190
tp1878
g0
(g10
g2
Ntp1879
Rp1880
(dp1881
g14
F-2.7640655484058754
sg15
I00
sg16
I190
sg17
I33
sbs(I27
I253
tp1882
g0
(g10
g2
Ntp1883
Rp1884
(dp1885
g14
F-5.300640839554978
sg15
I01
sg16
I253
sg17
I27
sbs(I216
I176
tp1886
g0
(g10
g2
Ntp1887
Rp1888
(dp1889
g14
F2.371029221857635
sg15
I01
sg16
I176
sg17
I216
sbs(I110
I144
tp1890
g0
(g10
g2
Ntp1891
Rp1892
(dp1893
g14
F3.617673543717049
sg15
I00
sg16
I144
sg17
I110
sbs(I147
I134
tp1894
g0
(g10
g2
Ntp1895
Rp1896
(dp1897
g14
F3.496179934828323
sg15
I01
sg16
I134
sg17
I147
sbs(I54
I76
tp1898
g0
(g10
g2
Ntp1899
Rp1900
(dp1901
g14
F3.621194336578332
sg15
I00
sg16
I76
sg17
I54
sbs(I116
I180
tp1902
g0
(g10
g2
Ntp1903
Rp1904
(dp1905
g14
F6.0603849800311025
sg15
I00
sg16
I180
sg17
I116
sbs(I235
I316
tp1906
g0
(g10
g2
Ntp1907
Rp1908
(dp1909
g14
F-3.1284475949646526
sg15
I00
sg16
I316
sg17
I235
sbs(I170
I146
tp1910
g0
(g10
g2
Ntp1911
Rp1912
(dp1913
g14
F1.600413668084545
sg15
I00
sg16
I146
sg17
I170
sbs(I153
I250
tp1914
g0
(g10
g2
Ntp1915
Rp1916
(dp1917
g14
F1.1385850776391444
sg15
I00
sg16
I250
sg17
I153
sbs(I30
I82
tp1918
g0
(g10
g2
Ntp1919
Rp1920
(dp1921
g14
F0.7851518182741123
sg15
I00
sg16
I82
sg17
I30
sbs(I5
I328
tp1922
g0
(g10
g2
Ntp1923
Rp1924
(dp1925
g14
F1.534423491906908
sg15
I01
sg16
I328
sg17
I5
sbs(I317
I102
tp1926
g0
(g10
g2
Ntp1927
Rp1928
(dp1929
g14
F15.063675352706879
sg15
I01
sg16
I102
sg17
I317
sbs(I318
I245
tp1930
g0
(g10
g2
Ntp1931
Rp1932
(dp1933
g14
F-6.121838212395493
sg15
I00
sg16
I245
sg17
I318
sbs(I124
I171
tp1934
g0
(g10
g2
Ntp1935
Rp1936
(dp1937
g14
F-3.5333916142605033
sg15
I01
sg16
I171
sg17
I124
sbs(I302
I147
tp1938
g0
(g10
g2
Ntp1939
Rp1940
(dp1941
g14
F0.09631126533955923
sg15
I01
sg16
I147
sg17
I302
sbs(I46
I178
tp1942
g0
(g10
g2
Ntp1943
Rp1944
(dp1945
g14
F-6.288376325301815
sg15
I00
sg16
I178
sg17
I46
sbs(I347
I144
tp1946
g0
(g10
g2
Ntp1947
Rp1948
(dp1949
g14
F-0.4860277667850046
sg15
I01
sg16
I144
sg17
I347
sbs(I97
I262
tp1950
g0
(g10
g2
Ntp1951
Rp1952
(dp1953
g14
F-1.7143830237377617
sg15
I01
sg16
I262
sg17
I97
sbs(I57
I65
tp1954
g0
(g10
g2
Ntp1955
Rp1956
(dp1957
g14
F-6.924698541404483
sg15
I00
sg16
I65
sg17
I57
sbs(I258
I66
tp1958
g0
(g10
g2
Ntp1959
Rp1960
(dp1961
g14
F-0.17571111367451353
sg15
I01
sg16
I66
sg17
I258
sbs(I48
I206
tp1962
g0
(g10
g2
Ntp1963
Rp1964
(dp1965
g14
F1.3423768757404602
sg15
I00
sg16
I206
sg17
I48
sbs(I169
I89
tp1966
g0
(g10
g2
Ntp1967
Rp1968
(dp1969
g14
F0.9848769896477365
sg15
I00
sg16
I89
sg17
I169
sbs(I14
I125
tp1970
g0
(g10
g2
Ntp1971
Rp1972
(dp1973
g14
F-4.2549020136031555
sg15
I01
sg16
I125
sg17
I14
sbs(I249
I235
tp1974
g0
(g10
g2
Ntp1975
Rp1976
(dp1977
g14
F2.5799722522440853
sg15
I01
sg16
I235
sg17
I249
sbs(I42
I305
tp1978
g0
(g10
g2
Ntp1979
Rp1980
(dp1981
g14
F-0.3316081177248311
sg15
I01
sg16
I305
sg17
I42
sbs(I190
I201
tp1982
g0
(g10
g2
Ntp1983
Rp1984
(dp1985
g14
F-5.7191388744353535
sg15
I00
sg16
I201
sg17
I190
sbs(I15
I233
tp1986
g0
(g10
g2
Ntp1987
Rp1988
(dp1989
g14
F2.9539015348846926
sg15
I01
sg16
I233
sg17
I15
sbs(I151
I183
tp1990
g0
(g10
g2
Ntp1991
Rp1992
(dp1993
g14
F-4.020043937364091
sg15
I00
sg16
I183
sg17
I151
sbs(I193
I261
tp1994
g0
(g10
g2
Ntp1995
Rp1996
(dp1997
g14
F-5.22679160812777
sg15
I00
sg16
I261
sg17
I193
sbs(I125
I65
tp1998
g0
(g10
g2
Ntp1999
Rp2000
(dp2001
g14
F3.5706567834647265
sg15
I00
sg16
I65
sg17
I125
sbs(I245
I159
tp2002
g0
(g10
g2
Ntp2003
Rp2004
(dp2005
g14
F2.3491903659025803
sg15
I00
sg16
I159
sg17
I245
sbs(I4
I89
tp2006
g0
(g10
g2
Ntp2007
Rp2008
(dp2009
g14
F-0.39251763379712534
sg15
I00
sg16
I89
sg17
I4
sbs(I48
I335
tp2010
g0
(g10
g2
Ntp2011
Rp2012
(dp2013
g14
F14.174448121826106
sg15
I01
sg16
I335
sg17
I48
sbs(I162
I66
tp2014
g0
(g10
g2
Ntp2015
Rp2016
(dp2017
g14
F3.988100779708522
sg15
I00
sg16
I66
sg17
I162
sbs(I140
I86
tp2018
g0
(g10
g2
Ntp2019
Rp2020
(dp2021
g14
F-3.60437886943771
sg15
I00
sg16
I86
sg17
I140
sbs(I327
I66
tp2022
g0
(g10
g2
Ntp2023
Rp2024
(dp2025
g14
F1.7141958813031684
sg15
I00
sg16
I66
sg17
I327
sbs(I5
I67
tp2026
g0
(g10
g2
Ntp2027
Rp2028
(dp2029
g14
F1.3875245292513538
sg15
I01
sg16
I67
sg17
I5
sbs(I322
I112
tp2030
g0
(g10
g2
Ntp2031
Rp2032
(dp2033
g14
F-7.16165692678209
sg15
I00
sg16
I112
sg17
I322
sbs(I334
I276
tp2034
g0
(g10
g2
Ntp2035
Rp2036
(dp2037
g14
F-3.062029414910998
sg15
I00
sg16
I276
sg17
I334
sbs(I157
I221
tp2038
g0
(g10
g2
Ntp2039
Rp2040
(dp2041
g14
F-14.273458801576558
sg15
I01
sg16
I221
sg17
I157
sbs(I59
I348
tp2042
g0
(g10
g2
Ntp2043
Rp2044
(dp2045
g14
F1.8619348828526336
sg15
I01
sg16
I348
sg17
I59
sbs(I67
I333
tp2046
g0
(g10
g2
Ntp2047
Rp2048
(dp2049
g14
F5.7372805705213334
sg15
I01
sg16
I333
sg17
I67
sbs(I215
I279
tp2050
g0
(g10
g2
Ntp2051
Rp2052
(dp2053
g14
F5.324285539575377
sg15
I01
sg16
I279
sg17
I215
sbs(I196
I154
tp2054
g0
(g10
g2
Ntp2055
Rp2056
(dp2057
g14
F0.23503234747821145
sg15
I01
sg16
I154
sg17
I196
sbs(I56
I66
tp2058
g0
(g10
g2
Ntp2059
Rp2060
(dp2061
g14
F-6.204380953932594
sg15
I00
sg16
I66
sg17
I56
sbs(I138
I353
tp2062
g0
(g10
g2
Ntp2063
Rp2064
(dp2065
g14
F9.71485638405941
sg15
I01
sg16
I353
sg17
I138
sbs(I152
I332
tp2066
g0
(g10
g2
Ntp2067
Rp2068
(dp2069
g14
F0.24882334188353866
sg15
I01
sg16
I332
sg17
I152
sbs(I35
I112
tp2070
g0
(g10
g2
Ntp2071
Rp2072
(dp2073
g14
F0.25437004382273076
sg15
I00
sg16
I112
sg17
I35
sbs(I46
I66
tp2074
g0
(g10
g2
Ntp2075
Rp2076
(dp2077
g14
F-3.3330567392317434
sg15
I01
sg16
I66
sg17
I46
sbs(I133
I66
tp2078
g0
(g10
g2
Ntp2079
Rp2080
(dp2081
g14
F6.431499975483725
sg15
I00
sg16
I66
sg17
I133
sbs(I242
I311
tp2082
g0
(g10
g2
Ntp2083
Rp2084
(dp2085
g14
F3.373626871971382
sg15
I00
sg16
I311
sg17
I242
sbs(I150
I87
tp2086
g0
(g10
g2
Ntp2087
Rp2088
(dp2089
g14
F-7.009011453770439
sg15
I00
sg16
I87
sg17
I150
sbs(I88
I165
tp2090
g0
(g10
g2
Ntp2091
Rp2092
(dp2093
g14
F11.851478230537271
sg15
I00
sg16
I165
sg17
I88
sbs(I254
I258
tp2094
g0
(g10
g2
Ntp2095
Rp2096
(dp2097
g14
F2.2224195233756454
sg15
I01
sg16
I258
sg17
I254
sbs(I114
I347
tp2098
g0
(g10
g2
Ntp2099
Rp2100
(dp2101
g14
F-10.273909263338643
sg15
I01
sg16
I347
sg17
I114
sbs(I187
I115
tp2102
g0
(g10
g2
Ntp2103
Rp2104
(dp2105
g14
F1.4588958581041258
sg15
I01
sg16
I115
sg17
I187
sbs(I339
I165
tp2106
g0
(g10
g2
Ntp2107
Rp2108
(dp2109
g14
F4.598273607959554
sg15
I01
sg16
I165
sg17
I339
sbs(I39
I68
tp2110
g0
(g10
g2
Ntp2111
Rp2112
(dp2113
g14
F5.704320386912094
sg15
I01
sg16
I68
sg17
I39
sbs(I332
I210
tp2114
g0
(g10
g2
Ntp2115
Rp2116
(dp2117
g14
F-9.599100492258138
sg15
I01
sg16
I210
sg17
I332
sbs(I19
I73
tp2118
g0
(g10
g2
Ntp2119
Rp2120
(dp2121
g14
F-2.4259510217710174
sg15
I01
sg16
I73
sg17
I19
sbs(I316
I314
tp2122
g0
(g10
g2
Ntp2123
Rp2124
(dp2125
g14
F-6.163410966963008
sg15
I01
sg16
I314
sg17
I316
sbs(I27
I66
tp2126
g0
(g10
g2
Ntp2127
Rp2128
(dp2129
g14
F-7.072063630020232
sg15
I01
sg16
I66
sg17
I27
sbs(I273
I79
tp2130
g0
(g10
g2
Ntp2131
Rp2132
(dp2133
g14
F1.3766809973073404
sg15
I01
sg16
I79
sg17
I273
sbs(I152
I210
tp2134
g0
(g10
g2
Ntp2135
Rp2136
(dp2137
g14
F-3.9031910961856613
sg15
I00
sg16
I210
sg17
I152
sbs(I127
I68
tp2138
g0
(g10
g2
Ntp2139
Rp2140
(dp2141
g14
F2.788149713176153
sg15
I01
sg16
I68
sg17
I127
sbs(I24
I102
tp2142
g0
(g10
g2
Ntp2143
Rp2144
(dp2145
g14
F-3.193702551738998
sg15
I00
sg16
I102
sg17
I24
sbs(I235
I201
tp2146
g0
(g10
g2
Ntp2147
Rp2148
(dp2149
g14
F3.9080071418847435
sg15
I01
sg16
I201
sg17
I235
sbs(I320
I103
tp2150
g0
(g10
g2
Ntp2151
Rp2152
(dp2153
g14
F-0.31132470098923926
sg15
I00
sg16
I103
sg17
I320
sbs(I151
I128
tp2154
g0
(g10
g2
Ntp2155
Rp2156
(dp2157
g14
F-3.60165879538681
sg15
I00
sg16
I128
sg17
I151
sbs(I158
I102
tp2158
g0
(g10
g2
Ntp2159
Rp2160
(dp2161
g14
F-2.0373899279066148
sg15
I00
sg16
I102
sg17
I158
sbs(I94
I278
tp2162
g0
(g10
g2
Ntp2163
Rp2164
(dp2165
g14
F-6.252622627829193
sg15
I01
sg16
I278
sg17
I94
sbs(I303
I273
tp2166
g0
(g10
g2
Ntp2167
Rp2168
(dp2169
g14
F-1.0435754333515002
sg15
I00
sg16
I273
sg17
I303
sbs(I84
I119
tp2170
g0
(g10
g2
Ntp2171
Rp2172
(dp2173
g14
F-6.671059699266916
sg15
I00
sg16
I119
sg17
I84
sbs(I227
I160
tp2174
g0
(g10
g2
Ntp2175
Rp2176
(dp2177
g14
F4.692521522188056
sg15
I00
sg16
I160
sg17
I227
sbs(I229
I71
tp2178
g0
(g10
g2
Ntp2179
Rp2180
(dp2181
g14
F-3.987448456093349
sg15
I00
sg16
I71
sg17
I229
sbs(I243
I69
tp2182
g0
(g10
g2
Ntp2183
Rp2184
(dp2185
g14
F6.206702599252603
sg15
I00
sg16
I69
sg17
I243
sbs(I98
I279
tp2186
g0
(g10
g2
Ntp2187
Rp2188
(dp2189
g14
F-4.537871282507794
sg15
I00
sg16
I279
sg17
I98
sbs(I8
I222
tp2190
g0
(g10
g2
Ntp2191
Rp2192
(dp2193
g14
F-8.461839359277265
sg15
I01
sg16
I222
sg17
I8
sbs(I335
I77
tp2194
g0
(g10
g2
Ntp2195
Rp2196
(dp2197
g14
F5.132949697499069
sg15
I01
sg16
I77
sg17
I335
sbs(I147
I300
tp2198
g0
(g10
g2
Ntp2199
Rp2200
(dp2201
g14
F-0.04193440710952345
sg15
I01
sg16
I300
sg17
I147
sbs(I190
I136
tp2202
g0
(g10
g2
Ntp2203
Rp2204
(dp2205
g14
F-0.45719868117341944
sg15
I00
sg16
I136
sg17
I190
sbs(I5
I65
tp2206
g0
(g10
g2
Ntp2207
Rp2208
(dp2209
g14
F3.8219654429184544
sg15
I00
sg16
I65
sg17
I5
sbs(I63
I72
tp2210
g0
(g10
g2
Ntp2211
Rp2212
(dp2213
g14
F2.053668461986534
sg15
I00
sg16
I72
sg17
I63
sbs(I193
I272
tp2214
g0
(g10
g2
Ntp2215
Rp2216
(dp2217
g14
F2.205964946568031
sg15
I01
sg16
I272
sg17
I193
sbs(I116
I155
tp2218
g0
(g10
g2
Ntp2219
Rp2220
(dp2221
g14
F-4.343725062129124
sg15
I00
sg16
I155
sg17
I116
sbs(I263
I175
tp2222
g0
(g10
g2
Ntp2223
Rp2224
(dp2225
g14
F1.4168753069413005
sg15
I01
sg16
I175
sg17
I263
sbs(I0
I65
tp2226
g0
(g10
g2
Ntp2227
Rp2228
(dp2229
g14
F-7.084214792149469
sg15
I01
sg16
I65
sg17
I0
sbs(I48
I75
tp2230
g0
(g10
g2
Ntp2231
Rp2232
(dp2233
g14
F-2.2692278459707396
sg15
I00
sg16
I75
sg17
I48
sbs(I140
I346
tp2234
g0
(g10
g2
Ntp2235
Rp2236
(dp2237
g14
F-4.109832440894961
sg15
I00
sg16
I346
sg17
I140
sbs(I111
I351
tp2238
g0
(g10
g2
Ntp2239
Rp2240
(dp2241
g14
F4.616320840204712
sg15
I01
sg16
I351
sg17
I111
sbs(I313
I111
tp2242
g0
(g10
g2
Ntp2243
Rp2244
(dp2245
g14
F1.3909519275672204
sg15
I00
sg16
I111
sg17
I313
sbs(I63
I95
tp2246
g0
(g10
g2
Ntp2247
Rp2248
(dp2249
g14
F-2.172295885310652
sg15
I00
sg16
I95
sg17
I63
sbs(I275
I65
tp2250
g0
(g10
g2
Ntp2251
Rp2252
(dp2253
g14
F-4.652723617417988
sg15
I00
sg16
I65
sg17
I275
sbs(I30
I71
tp2254
g0
(g10
g2
Ntp2255
Rp2256
(dp2257
g14
F-0.21484364982167042
sg15
I01
sg16
I71
sg17
I30
sbs(I88
I339
tp2258
g0
(g10
g2
Ntp2259
Rp2260
(dp2261
g14
F-5.574125945616488
sg15
I01
sg16
I339
sg17
I88
sbs(I312
I296
tp2262
g0
(g10
g2
Ntp2263
Rp2264
(dp2265
g14
F-3.5595150446496873
sg15
I00
sg16
I296
sg17
I312
sbs(I28
I349
tp2266
g0
(g10
g2
Ntp2267
Rp2268
(dp2269
g14
F-2.0879006502029287
sg15
I01
sg16
I349
sg17
I28
sbs(I19
I68
tp2270
g0
(g10
g2
Ntp2271
Rp2272
(dp2273
g14
F1.5034427823310872
sg15
I01
sg16
I68
sg17
I19
sbs(I12
I312
tp2274
g0
(g10
g2
Ntp2275
Rp2276
(dp2277
g14
F-3.1233427942713856
sg15
I00
sg16
I312
sg17
I12
sbs(I97
I297
tp2278
g0
(g10
g2
Ntp2279
Rp2280
(dp2281
g14
F-6.557124144515487
sg15
I00
sg16
I297
sg17
I97
sbs(I94
I254
tp2282
g0
(g10
g2
Ntp2283
Rp2284
(dp2285
g14
F-1.7585983070242626
sg15
I00
sg16
I254
sg17
I94
sbs(I27
I296
tp2286
g0
(g10
g2
Ntp2287
Rp2288
(dp2289
g14
F-3.9577219798473875
sg15
I01
sg16
I296
sg17
I27
sbs(I290
I298
tp2290
g0
(g10
g2
Ntp2291
Rp2292
(dp2293
g14
F-2.625704567894539
sg15
I00
sg16
I298
sg17
I290
sbs(I256
I220
tp2294
g0
(g10
g2
Ntp2295
Rp2296
(dp2297
g14
F0.36182399609713756
sg15
I00
sg16
I220
sg17
I256
sbs(I225
I310
tp2298
g0
(g10
g2
Ntp2299
Rp2300
(dp2301
g14
F-7.905433118640566
sg15
I01
sg16
I310
sg17
I225
sbs(I74
I330
tp2302
g0
(g10
g2
Ntp2303
Rp2304
(dp2305
g14
F-1.071632494215764
sg15
I01
sg16
I330
sg17
I74
sbs(I15
I94
tp2306
g0
(g10
g2
Ntp2307
Rp2308
(dp2309
g14
F2.1921591606433104
sg15
I01
sg16
I94
sg17
I15
sbs(I88
I133
tp2310
g0
(g10
g2
Ntp2311
Rp2312
(dp2313
g14
F-7.830202190378942
sg15
I01
sg16
I133
sg17
I88
sbs(I306
I196
tp2314
g0
(g10
g2
Ntp2315
Rp2316
(dp2317
g14
F-1.9608071930083368
sg15
I00
sg16
I196
sg17
I306
sbs(I111
I74
tp2318
g0
(g10
g2
Ntp2319
Rp2320
(dp2321
g14
F-9.658700650022281
sg15
I00
sg16
I74
sg17
I111
sbs(I259
I95
tp2322
g0
(g10
g2
Ntp2323
Rp2324
(dp2325
g14
F-4.30638393824853
sg15
I01
sg16
I95
sg17
I259
sbs(I14
I334
tp2326
g0
(g10
g2
Ntp2327
Rp2328
(dp2329
g14
F3.800967004322836
sg15
I01
sg16
I334
sg17
I14
sbs(I100
I66
tp2330
g0
(g10
g2
Ntp2331
Rp2332
(dp2333
g14
F-5.063687789161735
sg15
I01
sg16
I66
sg17
I100
sbs(I293
I354
tp2334
g0
(g10
g2
Ntp2335
Rp2336
(dp2337
g14
F11.776731246266431
sg15
I01
sg16
I354
sg17
I293
sbs(I15
I207
tp2338
g0
(g10
g2
Ntp2339
Rp2340
(dp2341
g14
F2.0133082325181024
sg15
I00
sg16
I207
sg17
I15
sbs(I88
I308
tp2342
g0
(g10
g2
Ntp2343
Rp2344
(dp2345
g14
F1.4387115421969852
sg15
I01
sg16
I308
sg17
I88
sbs(I227
I226
tp2346
g0
(g10
g2
Ntp2347
Rp2348
(dp2349
g14
F4.873916115815507
sg15
I00
sg16
I226
sg17
I227
sbs(I48
I140
tp2350
g0
(g10
g2
Ntp2351
Rp2352
(dp2353
g14
F1.5859340854059871
sg15
I01
sg16
I140
sg17
I48
sbs(I140
I89
tp2354
g0
(g10
g2
Ntp2355
Rp2356
(dp2357
g14
F-1.7640422002605443
sg15
I00
sg16
I89
sg17
I140
sbs(I90
I66
tp2358
g0
(g10
g2
Ntp2359
Rp2360
(dp2361
g14
F4.211626906065875
sg15
I01
sg16
I66
sg17
I90
sbs(I3
I104
tp2362
g0
(g10
g2
Ntp2363
Rp2364
(dp2365
g14
F-13.73781620151007
sg15
I01
sg16
I104
sg17
I3
sbs(I108
I131
tp2366
g0
(g10
g2
Ntp2367
Rp2368
(dp2369
g14
F4.529846724331919
sg15
I01
sg16
I131
sg17
I108
sbs(I193
I275
tp2370
g0
(g10
g2
Ntp2371
Rp2372
(dp2373
g14
F-9.345882690998167
sg15
I01
sg16
I275
sg17
I193
sbs(I45
I168
tp2374
g0
(g10
g2
Ntp2375
Rp2376
(dp2377
g14
F0.06436538599989572
sg15
I00
sg16
I168
sg17
I45
sbs(I131
I69
tp2378
g0
(g10
g2
Ntp2379
Rp2380
(dp2381
g14
F-1.7988523298117705
sg15
I00
sg16
I69
sg17
I131
sbs(I190
I282
tp2382
g0
(g10
g2
Ntp2383
Rp2384
(dp2385
g14
F5.188145100368303
sg15
I00
sg16
I282
sg17
I190
sbs(I17
I231
tp2386
g0
(g10
g2
Ntp2387
Rp2388
(dp2389
g14
F1.3146120097792326
sg15
I01
sg16
I231
sg17
I17
sbs(I191
I174
tp2390
g0
(g10
g2
Ntp2391
Rp2392
(dp2393
g14
F1.333184289641979
sg15
I01
sg16
I174
sg17
I191
sbs(I122
I246
tp2394
g0
(g10
g2
Ntp2395
Rp2396
(dp2397
g14
F-3.708098685869146
sg15
I01
sg16
I246
sg17
I122
sbs(I27
I99
tp2398
g0
(g10
g2
Ntp2399
Rp2400
(dp2401
g14
F-1.8734626617663386
sg15
I01
sg16
I99
sg17
I27
sbs(I136
I126
tp2402
g0
(g10
g2
Ntp2403
Rp2404
(dp2405
g14
F-2.934614144998676
sg15
I00
sg16
I126
sg17
I136
sbs(I84
I73
tp2406
g0
(g10
g2
Ntp2407
Rp2408
(dp2409
g14
F-3.5103413186444006
sg15
I00
sg16
I73
sg17
I84
sbs(I45
I211
tp2410
g0
(g10
g2
Ntp2411
Rp2412
(dp2413
g14
F7.261523652791187
sg15
I00
sg16
I211
sg17
I45
sbs(I177
I144
tp2414
g0
(g10
g2
Ntp2415
Rp2416
(dp2417
g14
F-11.78806160119255
sg15
I00
sg16
I144
sg17
I177
sbs(I228
I128
tp2418
g0
(g10
g2
Ntp2419
Rp2420
(dp2421
g14
F2.3620694688917574
sg15
I01
sg16
I128
sg17
I228
sbs(I27
I299
tp2422
g0
(g10
g2
Ntp2423
Rp2424
(dp2425
g14
F5.20919158399091
sg15
I01
sg16
I299
sg17
I27
sbs(I172
I97
tp2426
g0
(g10
g2
Ntp2427
Rp2428
(dp2429
g14
F2.0963956352902895
sg15
I01
sg16
I97
sg17
I172
sbs(I17
I327
tp2430
g0
(g10
g2
Ntp2431
Rp2432
(dp2433
g14
F-1.7555208735679917
sg15
I00
sg16
I327
sg17
I17
sbs(I153
I274
tp2434
g0
(g10
g2
Ntp2435
Rp2436
(dp2437
g14
F9.92805460787536
sg15
I00
sg16
I274
sg17
I153
sbs(I353
I155
tp2438
g0
(g10
g2
Ntp2439
Rp2440
(dp2441
g14
F2.426207978966382
sg15
I01
sg16
I155
sg17
I353
sbs(I124
I232
tp2442
g0
(g10
g2
Ntp2443
Rp2444
(dp2445
g14
F0.2852740476516506
sg15
I00
sg16
I232
sg17
I124
sbs(I66
I183
tp2446
g0
(g10
g2
Ntp2447
Rp2448
(dp2449
g14
F-3.5870873712297064
sg15
I01
sg16
I183
sg17
I66
sbs(I59
I138
tp2450
g0
(g10
g2
Ntp2451
Rp2452
(dp2453
g14
F4.278485131421647
sg15
I01
sg16
I138
sg17
I59
sbs(I182
I338
tp2454
g0
(g10
g2
Ntp2455
Rp2456
(dp2457
g14
F-12.658191064800189
sg15
I00
sg16
I338
sg17
I182
sbs(I137
I82
tp2458
g0
(g10
g2
Ntp2459
Rp2460
(dp2461
g14
F9.10694733615321
sg15
I01
sg16
I82
sg17
I137
sbs(I234
I192
tp2462
g0
(g10
g2
Ntp2463
Rp2464
(dp2465
g14
F-3.309572458965624
sg15
I00
sg16
I192
sg17
I234
sbs(I56
I94
tp2466
g0
(g10
g2
Ntp2467
Rp2468
(dp2469
g14
F5.085861742983043
sg15
I00
sg16
I94
sg17
I56
sbs(I20
I76
tp2470
g0
(g10
g2
Ntp2471
Rp2472
(dp2473
g14
F13.164548216075676
sg15
I00
sg16
I76
sg17
I20
sbs(I27
I155
tp2474
g0
(g10
g2
Ntp2475
Rp2476
(dp2477
g14
F1.0983799812203578
sg15
I00
sg16
I155
sg17
I27
sbs(I5
I107
tp2478
g0
(g10
g2
Ntp2479
Rp2480
(dp2481
g14
F-3.371850882169338
sg15
I01
sg16
I107
sg17
I5
sbs(I279
I75
tp2482
g0
(g10
g2
Ntp2483
Rp2484
(dp2485
g14
F0.35550703996140787
sg15
I00
sg16
I75
sg17
I279
sbs(I69
I71
tp2486
g0
(g10
g2
Ntp2487
Rp2488
(dp2489
g14
F5.643842030447814
sg15
I00
sg16
I71
sg17
I69
sbs(I343
I87
tp2490
g0
(g10
g2
Ntp2491
Rp2492
(dp2493
g14
F-5.361507749672637
sg15
I01
sg16
I87
sg17
I343
sbs(I291
I187
tp2494
g0
(g10
g2
Ntp2495
Rp2496
(dp2497
g14
F1.5334331085177921
sg15
I00
sg16
I187
sg17
I291
sbs(I93
I65
tp2498
g0
(g10
g2
Ntp2499
Rp2500
(dp2501
g14
F-10.646914311796454
sg15
I01
sg16
I65
sg17
I93
sbs(I186
I295
tp2502
g0
(g10
g2
Ntp2503
Rp2504
(dp2505
g14
F3.6869068319934
sg15
I00
sg16
I295
sg17
I186
sbs(I322
I155
tp2506
g0
(g10
g2
Ntp2507
Rp2508
(dp2509
g14
F-6.221158934657608
sg15
I00
sg16
I155
sg17
I322
sbs(I160
I226
tp2510
g0
(g10
g2
Ntp2511
Rp2512
(dp2513
g14
F-3.2300975943667085
sg15
I01
sg16
I226
sg17
I160
sbssS'parent1_id'
p2514
I264510
sS'num_inputs'
p2515
I64
sS'node_genes'
p2516
(dp2517
I0
g0
(cneat.genes
NodeGene
p2518
g2
Ntp2519
Rp2520
(dp2521
S'activation_type'
p2522
S'sigmoid'
p2523
sS'bias'
p2524
F0.0
sS'type'
p2525
S'INPUT'
p2526
sS'ID'
p2527
I0
sS'response'
p2528
F4.924273
sbsI1
g0
(g2518
g2
Ntp2529
Rp2530
(dp2531
g2522
g2523
sg2524
F0.0
sg2525
g2526
sg2527
I1
sg2528
F4.924273
sbsI2
g0
(g2518
g2
Ntp2532
Rp2533
(dp2534
g2522
g2523
sg2524
F0.0
sg2525
g2526
sg2527
I2
sg2528
F4.924273
sbsI3
g0
(g2518
g2
Ntp2535
Rp2536
(dp2537
g2522
g2523
sg2524
F0.0
sg2525
g2526
sg2527
I3
sg2528
F4.924273
sbsI4
g0
(g2518
g2
Ntp2538
Rp2539
(dp2540
g2522
g2523
sg2524
F0.0
sg2525
g2526
sg2527
I4
sg2528
F4.924273
sbsI5
g0
(g2518
g2
Ntp2541
Rp2542
(dp2543
g2522
g2523
sg2524
F0.0
sg2525
g2526
sg2527
I5
sg2528
F4.924273
sbsI6
g0
(g2518
g2
Ntp2544
Rp2545
(dp2546
g2522
g2523
sg2524
F0.0
sg2525
g2526
sg2527
I6
sg2528
F4.924273
sbsI7
g0
(g2518
g2
Ntp2547
Rp2548
(dp2549
g2522
g2523
sg2524
F0.0
sg2525
g2526
sg2527
I7
sg2528
F4.924273
sbsI8
g0
(g2518
g2
Ntp2550
Rp2551
(dp2552
g2522
g2523
sg2524
F0.0
sg2525
g2526
sg2527
I8
sg2528
F4.924273
sbsI9
g0
(g2518
g2
Ntp2553
Rp2554
(dp2555
g2522
g2523
sg2524
F0.0
sg2525
g2526
sg2527
I9
sg2528
F4.924273
sbsI10
g0
(g2518
g2
Ntp2556
Rp2557
(dp2558
g2522
g2523
sg2524
F0.0
sg2525
g2526
sg2527
I10
sg2528
F4.924273
sbsI11
g0
(g2518
g2
Ntp2559
Rp2560
(dp2561
g2522
g2523
sg2524
F0.0
sg2525
g2526
sg2527
I11
sg2528
F4.924273
sbsI12
g0
(g2518
g2
Ntp2562
Rp2563
(dp2564
g2522
g2523
sg2524
F0.0
sg2525
g2526
sg2527
I12
sg2528
F4.924273
sbsI13
g0
(g2518
g2
Ntp2565
Rp2566
(dp2567
g2522
g2523
sg2524
F0.0
sg2525
g2526
sg2527
I13
sg2528
F4.924273
sbsI14
g0
(g2518
g2
Ntp2568
Rp2569
(dp2570
g2522
g2523
sg2524
F0.0
sg2525
g2526
sg2527
I14
sg2528
F4.924273
sbsI15
g0
(g2518
g2
Ntp2571
Rp2572
(dp2573
g2522
g2523
sg2524
F0.0
sg2525
g2526
sg2527
I15
sg2528
F4.924273
sbsI16
g0
(g2518
g2
Ntp2574
Rp2575
(dp2576
g2522
g2523
sg2524
F0.0
sg2525
g2526
sg2527
I16
sg2528
F4.924273
sbsI17
g0
(g2518
g2
Ntp2577
Rp2578
(dp2579
g2522
g2523
sg2524
F0.0
sg2525
g2526
sg2527
I17
sg2528
F4.924273
sbsI18
g0
(g2518
g2
Ntp2580
Rp2581
(dp2582
g2522
g2523
sg2524
F0.0
sg2525
g2526
sg2527
I18
sg2528
F4.924273
sbsI19
g0
(g2518
g2
Ntp2583
Rp2584
(dp2585
g2522
g2523
sg2524
F0.0
sg2525
g2526
sg2527
I19
sg2528
F4.924273
sbsI20
g0
(g2518
g2
Ntp2586
Rp2587
(dp2588
g2522
g2523
sg2524
F0.0
sg2525
g2526
sg2527
I20
sg2528
F4.924273
sbsI21
g0
(g2518
g2
Ntp2589
Rp2590
(dp2591
g2522
g2523
sg2524
F0.0
sg2525
g2526
sg2527
I21
sg2528
F4.924273
sbsI22
g0
(g2518
g2
Ntp2592
Rp2593
(dp2594
g2522
g2523
sg2524
F0.0
sg2525
g2526
sg2527
I22
sg2528
F4.924273
sbsI23
g0
(g2518
g2
Ntp2595
Rp2596
(dp2597
g2522
g2523
sg2524
F0.0
sg2525
g2526
sg2527
I23
sg2528
F4.924273
sbsI24
g0
(g2518
g2
Ntp2598
Rp2599
(dp2600
g2522
g2523
sg2524
F0.0
sg2525
g2526
sg2527
I24
sg2528
F4.924273
sbsI25
g0
(g2518
g2
Ntp2601
Rp2602
(dp2603
g2522
g2523
sg2524
F0.0
sg2525
g2526
sg2527
I25
sg2528
F4.924273
sbsI26
g0
(g2518
g2
Ntp2604
Rp2605
(dp2606
g2522
g2523
sg2524
F0.0
sg2525
g2526
sg2527
I26
sg2528
F4.924273
sbsI27
g0
(g2518
g2
Ntp2607
Rp2608
(dp2609
g2522
g2523
sg2524
F0.0
sg2525
g2526
sg2527
I27
sg2528
F4.924273
sbsI28
g0
(g2518
g2
Ntp2610
Rp2611
(dp2612
g2522
g2523
sg2524
F0.0
sg2525
g2526
sg2527
I28
sg2528
F4.924273
sbsI29
g0
(g2518
g2
Ntp2613
Rp2614
(dp2615
g2522
g2523
sg2524
F0.0
sg2525
g2526
sg2527
I29
sg2528
F4.924273
sbsI30
g0
(g2518
g2
Ntp2616
Rp2617
(dp2618
g2522
g2523
sg2524
F0.0
sg2525
g2526
sg2527
I30
sg2528
F4.924273
sbsI31
g0
(g2518
g2
Ntp2619
Rp2620
(dp2621
g2522
g2523
sg2524
F0.0
sg2525
g2526
sg2527
I31
sg2528
F4.924273
sbsI32
g0
(g2518
g2
Ntp2622
Rp2623
(dp2624
g2522
g2523
sg2524
F0.0
sg2525
g2526
sg2527
I32
sg2528
F4.924273
sbsI33
g0
(g2518
g2
Ntp2625
Rp2626
(dp2627
g2522
g2523
sg2524
F0.0
sg2525
g2526
sg2527
I33
sg2528
F4.924273
sbsI34
g0
(g2518
g2
Ntp2628
Rp2629
(dp2630
g2522
g2523
sg2524
F0.0
sg2525
g2526
sg2527
I34
sg2528
F4.924273
sbsI35
g0
(g2518
g2
Ntp2631
Rp2632
(dp2633
g2522
g2523
sg2524
F0.0
sg2525
g2526
sg2527
I35
sg2528
F4.924273
sbsI36
g0
(g2518
g2
Ntp2634
Rp2635
(dp2636
g2522
g2523
sg2524
F0.0
sg2525
g2526
sg2527
I36
sg2528
F4.924273
sbsI37
g0
(g2518
g2
Ntp2637
Rp2638
(dp2639
g2522
g2523
sg2524
F0.0
sg2525
g2526
sg2527
I37
sg2528
F4.924273
sbsI38
g0
(g2518
g2
Ntp2640
Rp2641
(dp2642
g2522
g2523
sg2524
F0.0
sg2525
g2526
sg2527
I38
sg2528
F4.924273
sbsI39
g0
(g2518
g2
Ntp2643
Rp2644
(dp2645
g2522
g2523
sg2524
F0.0
sg2525
g2526
sg2527
I39
sg2528
F4.924273
sbsI40
g0
(g2518
g2
Ntp2646
Rp2647
(dp2648
g2522
g2523
sg2524
F0.0
sg2525
g2526
sg2527
I40
sg2528
F4.924273
sbsI41
g0
(g2518
g2
Ntp2649
Rp2650
(dp2651
g2522
g2523
sg2524
F0.0
sg2525
g2526
sg2527
I41
sg2528
F4.924273
sbsI42
g0
(g2518
g2
Ntp2652
Rp2653
(dp2654
g2522
g2523
sg2524
F0.0
sg2525
g2526
sg2527
I42
sg2528
F4.924273
sbsI43
g0
(g2518
g2
Ntp2655
Rp2656
(dp2657
g2522
g2523
sg2524
F0.0
sg2525
g2526
sg2527
I43
sg2528
F4.924273
sbsI44
g0
(g2518
g2
Ntp2658
Rp2659
(dp2660
g2522
g2523
sg2524
F0.0
sg2525
g2526
sg2527
I44
sg2528
F4.924273
sbsI45
g0
(g2518
g2
Ntp2661
Rp2662
(dp2663
g2522
g2523
sg2524
F0.0
sg2525
g2526
sg2527
I45
sg2528
F4.924273
sbsI46
g0
(g2518
g2
Ntp2664
Rp2665
(dp2666
g2522
g2523
sg2524
F0.0
sg2525
g2526
sg2527
I46
sg2528
F4.924273
sbsI47
g0
(g2518
g2
Ntp2667
Rp2668
(dp2669
g2522
g2523
sg2524
F0.0
sg2525
g2526
sg2527
I47
sg2528
F4.924273
sbsI48
g0
(g2518
g2
Ntp2670
Rp2671
(dp2672
g2522
g2523
sg2524
F0.0
sg2525
g2526
sg2527
I48
sg2528
F4.924273
sbsI49
g0
(g2518
g2
Ntp2673
Rp2674
(dp2675
g2522
g2523
sg2524
F0.0
sg2525
g2526
sg2527
I49
sg2528
F4.924273
sbsI50
g0
(g2518
g2
Ntp2676
Rp2677
(dp2678
g2522
g2523
sg2524
F0.0
sg2525
g2526
sg2527
I50
sg2528
F4.924273
sbsI51
g0
(g2518
g2
Ntp2679
Rp2680
(dp2681
g2522
g2523
sg2524
F0.0
sg2525
g2526
sg2527
I51
sg2528
F4.924273
sbsI52
g0
(g2518
g2
Ntp2682
Rp2683
(dp2684
g2522
g2523
sg2524
F0.0
sg2525
g2526
sg2527
I52
sg2528
F4.924273
sbsI53
g0
(g2518
g2
Ntp2685
Rp2686
(dp2687
g2522
g2523
sg2524
F0.0
sg2525
g2526
sg2527
I53
sg2528
F4.924273
sbsI54
g0
(g2518
g2
Ntp2688
Rp2689
(dp2690
g2522
g2523
sg2524
F0.0
sg2525
g2526
sg2527
I54
sg2528
F4.924273
sbsI55
g0
(g2518
g2
Ntp2691
Rp2692
(dp2693
g2522
g2523
sg2524
F0.0
sg2525
g2526
sg2527
I55
sg2528
F4.924273
sbsI56
g0
(g2518
g2
Ntp2694
Rp2695
(dp2696
g2522
g2523
sg2524
F0.0
sg2525
g2526
sg2527
I56
sg2528
F4.924273
sbsI57
g0
(g2518
g2
Ntp2697
Rp2698
(dp2699
g2522
g2523
sg2524
F0.0
sg2525
g2526
sg2527
I57
sg2528
F4.924273
sbsI58
g0
(g2518
g2
Ntp2700
Rp2701
(dp2702
g2522
g2523
sg2524
F0.0
sg2525
g2526
sg2527
I58
sg2528
F4.924273
sbsI59
g0
(g2518
g2
Ntp2703
Rp2704
(dp2705
g2522
g2523
sg2524
F0.0
sg2525
g2526
sg2527
I59
sg2528
F4.924273
sbsI60
g0
(g2518
g2
Ntp2706
Rp2707
(dp2708
g2522
g2523
sg2524
F0.0
sg2525
g2526
sg2527
I60
sg2528
F4.924273
sbsI61
g0
(g2518
g2
Ntp2709
Rp2710
(dp2711
g2522
g2523
sg2524
F0.0
sg2525
g2526
sg2527
I61
sg2528
F4.924273
sbsI62
g0
(g2518
g2
Ntp2712
Rp2713
(dp2714
g2522
g2523
sg2524
F0.0
sg2525
g2526
sg2527
I62
sg2528
F4.924273
sbsI63
g0
(g2518
g2
Ntp2715
Rp2716
(dp2717
g2522
g2523
sg2524
F0.0
sg2525
g2526
sg2527
I63
sg2528
F4.924273
sbsI64
g0
(g2518
g2
Ntp2718
Rp2719
(dp2720
g2522
S'sigmoid'
p2721
sg2524
F-2.3008351024422726
sg2525
S'OUTPUT'
p2722
sg2527
I64
sg2528
F-4.951669317530677
sbsI65
g0
(g2518
g2
Ntp2723
Rp2724
(dp2725
g2522
g2721
sg2524
F25.27663963451283
sg2525
g2722
sg2527
I65
sg2528
F2.8057968478153077
sbsI66
g0
(g2518
g2
Ntp2726
Rp2727
(dp2728
g2522
g2721
sg2524
F-8.560775024757255
sg2525
S'HIDDEN'
p2729
sg2527
I66
sg2528
F4.277585624370397
sbsI67
g0
(g2518
g2
Ntp2730
Rp2731
(dp2732
g2522
g2721
sg2524
F-11.906480463432388
sg2525
g2729
sg2527
I67
sg2528
F15.359238428558976
sbsI68
g0
(g2518
g2
Ntp2733
Rp2734
(dp2735
g2522
g2721
sg2524
F-3.1900139177010005
sg2525
g2729
sg2527
I68
sg2528
F23.216235053006177
sbsI69
g0
(g2518
g2
Ntp2736
Rp2737
(dp2738
g2522
g2721
sg2524
F-14.611500233409767
sg2525
g2729
sg2527
I69
sg2528
F-6.166087153980608
sbsI70
g0
(g2518
g2
Ntp2739
Rp2740
(dp2741
g2522
g2721
sg2524
F2.1116145899570564
sg2525
g2729
sg2527
I70
sg2528
F13.7083329389811
sbsI71
g0
(g2518
g2
Ntp2742
Rp2743
(dp2744
g2522
g2721
sg2524
F-4.948912907229751
sg2525
g2729
sg2527
I71
sg2528
F3.7271467226886656
sbsI72
g0
(g2518
g2
Ntp2745
Rp2746
(dp2747
g2522
g2721
sg2524
F-3.183047791264117
sg2525
g2729
sg2527
I72
sg2528
F5.3101570269476674
sbsI73
g0
(g2518
g2
Ntp2748
Rp2749
(dp2750
g2522
g2721
sg2524
F-7.053065405811141
sg2525
g2729
sg2527
I73
sg2528
F-8.065352841462273
sbsI74
g0
(g2518
g2
Ntp2751
Rp2752
(dp2753
g2522
g2721
sg2524
F12.5500842578563
sg2525
g2729
sg2527
I74
sg2528
F-8.098076123780599
sbsI75
g0
(g2518
g2
Ntp2754
Rp2755
(dp2756
g2522
g2721
sg2524
F-8.503125964998885
sg2525
g2729
sg2527
I75
sg2528
F11.370119899918603
sbsI76
g0
(g2518
g2
Ntp2757
Rp2758
(dp2759
g2522
g2721
sg2524
F13.705255210953444
sg2525
g2729
sg2527
I76
sg2528
F-20.033971590020172
sbsI77
g0
(g2518
g2
Ntp2760
Rp2761
(dp2762
g2522
g2721
sg2524
F8.371245081627805
sg2525
g2729
sg2527
I77
sg2528
F2.7039314421515623
sbsI78
g0
(g2518
g2
Ntp2763
Rp2764
(dp2765
g2522
g2721
sg2524
F1.3023846163207282
sg2525
g2729
sg2527
I78
sg2528
F28.527511377305643
sbsI79
g0
(g2518
g2
Ntp2766
Rp2767
(dp2768
g2522
g2721
sg2524
F-11.342510115564169
sg2525
g2729
sg2527
I79
sg2528
F-14.362700384131399
sbsI80
g0
(g2518
g2
Ntp2769
Rp2770
(dp2771
g2522
g2721
sg2524
F4.7431389123388525
sg2525
g2729
sg2527
I80
sg2528
F3.9333173996476862
sbsI81
g0
(g2518
g2
Ntp2772
Rp2773
(dp2774
g2522
g2721
sg2524
F-2.535334644280635
sg2525
g2729
sg2527
I81
sg2528
F7.9712696774690865
sbsI82
g0
(g2518
g2
Ntp2775
Rp2776
(dp2777
g2522
g2721
sg2524
F0.6859750542086898
sg2525
g2729
sg2527
I82
sg2528
F-0.25678222681265683
sbsI83
g0
(g2518
g2
Ntp2778
Rp2779
(dp2780
g2522
g2721
sg2524
F-13.485542446684338
sg2525
g2729
sg2527
I83
sg2528
F1.1361771036117951
sbsI84
g0
(g2518
g2
Ntp2781
Rp2782
(dp2783
g2522
g2721
sg2524
F-16.207772415421836
sg2525
g2729
sg2527
I84
sg2528
F10.46839522715603
sbsI85
g0
(g2518
g2
Ntp2784
Rp2785
(dp2786
g2522
g2721
sg2524
F11.906743171401791
sg2525
g2729
sg2527
I85
sg2528
F10.18805102541028
sbsI86
g0
(g2518
g2
Ntp2787
Rp2788
(dp2789
g2522
g2721
sg2524
F0.8366959009674205
sg2525
g2729
sg2527
I86
sg2528
F11.298094616418
sbsI87
g0
(g2518
g2
Ntp2790
Rp2791
(dp2792
g2522
g2721
sg2524
F20.086487619596664
sg2525
g2729
sg2527
I87
sg2528
F2.984457491105433
sbsI88
g0
(g2518
g2
Ntp2793
Rp2794
(dp2795
g2522
g2721
sg2524
F4.22589347482501
sg2525
g2729
sg2527
I88
sg2528
F14.921245281675642
sbsI89
g0
(g2518
g2
Ntp2796
Rp2797
(dp2798
g2522
g2721
sg2524
F-3.11415979234335
sg2525
g2729
sg2527
I89
sg2528
F11.843653199900565
sbsI90
g0
(g2518
g2
Ntp2799
Rp2800
(dp2801
g2522
g2721
sg2524
F1.5035398462505385
sg2525
g2729
sg2527
I90
sg2528
F-8.439115690893248
sbsI91
g0
(g2518
g2
Ntp2802
Rp2803
(dp2804
g2522
g2721
sg2524
F-20.13304888664495
sg2525
g2729
sg2527
I91
sg2528
F2.6442795109777895
sbsI92
g0
(g2518
g2
Ntp2805
Rp2806
(dp2807
g2522
g2721
sg2524
F-4.082988675488965
sg2525
g2729
sg2527
I92
sg2528
F8.738939674521063
sbsI93
g0
(g2518
g2
Ntp2808
Rp2809
(dp2810
g2522
g2721
sg2524
F-6.704178208421551
sg2525
g2729
sg2527
I93
sg2528
F1.3482425749683817
sbsI94
g0
(g2518
g2
Ntp2811
Rp2812
(dp2813
g2522
g2721
sg2524
F-9.976052744766182
sg2525
g2729
sg2527
I94
sg2528
F-1.8330525535802555
sbsI95
g0
(g2518
g2
Ntp2814
Rp2815
(dp2816
g2522
g2721
sg2524
F-11.717655022314151
sg2525
g2729
sg2527
I95
sg2528
F11.029960237818186
sbsI96
g0
(g2518
g2
Ntp2817
Rp2818
(dp2819
g2522
g2721
sg2524
F11.981022120296567
sg2525
g2729
sg2527
I96
sg2528
F19.275447750167256
sbsI97
g0
(g2518
g2
Ntp2820
Rp2821
(dp2822
g2522
g2721
sg2524
F7.015331582387159
sg2525
g2729
sg2527
I97
sg2528
F5.238523321004429
sbsI98
g0
(g2518
g2
Ntp2823
Rp2824
(dp2825
g2522
g2721
sg2524
F-2.431471286570222
sg2525
g2729
sg2527
I98
sg2528
F3.6421678982799808
sbsI99
g0
(g2518
g2
Ntp2826
Rp2827
(dp2828
g2522
g2721
sg2524
F-3.2597757578604325
sg2525
g2729
sg2527
I99
sg2528
F-19.12225087632067
sbsI100
g0
(g2518
g2
Ntp2829
Rp2830
(dp2831
g2522
g2721
sg2524
F7.781797150713233
sg2525
g2729
sg2527
I100
sg2528
F5.526605265520741
sbsI101
g0
(g2518
g2
Ntp2832
Rp2833
(dp2834
g2522
g2721
sg2524
F-4.405602161483052
sg2525
g2729
sg2527
I101
sg2528
F11.161008744357558
sbsI102
g0
(g2518
g2
Ntp2835
Rp2836
(dp2837
g2522
g2721
sg2524
F3.7752611797502214
sg2525
g2729
sg2527
I102
sg2528
F6.871645708661348
sbsI103
g0
(g2518
g2
Ntp2838
Rp2839
(dp2840
g2522
g2721
sg2524
F21.980588674063505
sg2525
g2729
sg2527
I103
sg2528
F0.9245336239768853
sbsI104
g0
(g2518
g2
Ntp2841
Rp2842
(dp2843
g2522
g2721
sg2524
F-2.4040059645770655
sg2525
g2729
sg2527
I104
sg2528
F9.107136178305144
sbsI105
g0
(g2518
g2
Ntp2844
Rp2845
(dp2846
g2522
g2721
sg2524
F5.975244950601205
sg2525
g2729
sg2527
I105
sg2528
F15.960451086877166
sbsI106
g0
(g2518
g2
Ntp2847
Rp2848
(dp2849
g2522
g2721
sg2524
F18.886957653002177
sg2525
g2729
sg2527
I106
sg2528
F22.05782821839052
sbsI107
g0
(g2518
g2
Ntp2850
Rp2851
(dp2852
g2522
g2721
sg2524
F5.934004410743591
sg2525
g2729
sg2527
I107
sg2528
F2.164959320699077
sbsI108
g0
(g2518
g2
Ntp2853
Rp2854
(dp2855
g2522
g2721
sg2524
F-17.922153788365915
sg2525
g2729
sg2527
I108
sg2528
F11.224147584418468
sbsI109
g0
(g2518
g2
Ntp2856
Rp2857
(dp2858
g2522
g2721
sg2524
F9.486857304300353
sg2525
g2729
sg2527
I109
sg2528
F9.105583550697965
sbsI110
g0
(g2518
g2
Ntp2859
Rp2860
(dp2861
g2522
g2721
sg2524
F-7.1847531616232985
sg2525
g2729
sg2527
I110
sg2528
F23.133490212310942
sbsI111
g0
(g2518
g2
Ntp2862
Rp2863
(dp2864
g2522
g2721
sg2524
F-0.14160020594229916
sg2525
g2729
sg2527
I111
sg2528
F8.70354269255776
sbsI112
g0
(g2518
g2
Ntp2865
Rp2866
(dp2867
g2522
g2721
sg2524
F-7.51261429708975
sg2525
g2729
sg2527
I112
sg2528
F16.431499091820346
sbsI113
g0
(g2518
g2
Ntp2868
Rp2869
(dp2870
g2522
g2721
sg2524
F26.006932904763254
sg2525
g2729
sg2527
I113
sg2528
F5.36051329425728
sbsI114
g0
(g2518
g2
Ntp2871
Rp2872
(dp2873
g2522
g2721
sg2524
F-9.03956540969119
sg2525
g2729
sg2527
I114
sg2528
F-6.85926310254936
sbsI115
g0
(g2518
g2
Ntp2874
Rp2875
(dp2876
g2522
g2721
sg2524
F6.883779999352771
sg2525
g2729
sg2527
I115
sg2528
F5.764583262775077
sbsI116
g0
(g2518
g2
Ntp2877
Rp2878
(dp2879
g2522
g2721
sg2524
F-5.226657617485553
sg2525
g2729
sg2527
I116
sg2528
F-9.49947094819252
sbsI117
g0
(g2518
g2
Ntp2880
Rp2881
(dp2882
g2522
g2721
sg2524
F5.170921237436575
sg2525
g2729
sg2527
I117
sg2528
F11.598831523363124
sbsI118
g0
(g2518
g2
Ntp2883
Rp2884
(dp2885
g2522
g2721
sg2524
F8.557374874518475
sg2525
g2729
sg2527
I118
sg2528
F6.346137921583098
sbsI119
g0
(g2518
g2
Ntp2886
Rp2887
(dp2888
g2522
g2721
sg2524
F9.747606966900575
sg2525
g2729
sg2527
I119
sg2528
F-14.171552678570945
sbsI120
g0
(g2518
g2
Ntp2889
Rp2890
(dp2891
g2522
g2721
sg2524
F18.63163003556073
sg2525
g2729
sg2527
I120
sg2528
F21.033133181414907
sbsI121
g0
(g2518
g2
Ntp2892
Rp2893
(dp2894
g2522
g2721
sg2524
F-0.029458090202207077
sg2525
g2729
sg2527
I121
sg2528
F-8.603707729004716
sbsI122
g0
(g2518
g2
Ntp2895
Rp2896
(dp2897
g2522
g2721
sg2524
F-0.6412737982834061
sg2525
g2729
sg2527
I122
sg2528
F6.698351935529857
sbsI123
g0
(g2518
g2
Ntp2898
Rp2899
(dp2900
g2522
g2721
sg2524
F-12.565584526754241
sg2525
g2729
sg2527
I123
sg2528
F6.93875540976936
sbsI124
g0
(g2518
g2
Ntp2901
Rp2902
(dp2903
g2522
g2721
sg2524
F14.740434792945948
sg2525
g2729
sg2527
I124
sg2528
F1.3974861212707805
sbsI125
g0
(g2518
g2
Ntp2904
Rp2905
(dp2906
g2522
g2721
sg2524
F-7.282113216076475
sg2525
g2729
sg2527
I125
sg2528
F-11.604125699694535
sbsI126
g0
(g2518
g2
Ntp2907
Rp2908
(dp2909
g2522
g2721
sg2524
F-1.787538502836763
sg2525
g2729
sg2527
I126
sg2528
F-3.7446864495692416
sbsI127
g0
(g2518
g2
Ntp2910
Rp2911
(dp2912
g2522
g2721
sg2524
F9.461758758193357
sg2525
g2729
sg2527
I127
sg2528
F-0.8880619242345088
sbsI128
g0
(g2518
g2
Ntp2913
Rp2914
(dp2915
g2522
g2721
sg2524
F10.734741463265335
sg2525
g2729
sg2527
I128
sg2528
F-3.5261456991412476
sbsI129
g0
(g2518
g2
Ntp2916
Rp2917
(dp2918
g2522
g2721
sg2524
F0.520303553928804
sg2525
g2729
sg2527
I129
sg2528
F6.084658738762637
sbsI130
g0
(g2518
g2
Ntp2919
Rp2920
(dp2921
g2522
g2721
sg2524
F22.512808870627108
sg2525
g2729
sg2527
I130
sg2528
F13.619775528203201
sbsI131
g0
(g2518
g2
Ntp2922
Rp2923
(dp2924
g2522
g2721
sg2524
F12.906091308957523
sg2525
g2729
sg2527
I131
sg2528
F1.741633696592564
sbsI132
g0
(g2518
g2
Ntp2925
Rp2926
(dp2927
g2522
g2721
sg2524
F-4.7663204831577675
sg2525
g2729
sg2527
I132
sg2528
F1.9952197677320986
sbsI133
g0
(g2518
g2
Ntp2928
Rp2929
(dp2930
g2522
g2721
sg2524
F-2.205075822421342
sg2525
g2729
sg2527
I133
sg2528
F-10.315907269381281
sbsI134
g0
(g2518
g2
Ntp2931
Rp2932
(dp2933
g2522
g2721
sg2524
F18.163240753874742
sg2525
g2729
sg2527
I134
sg2528
F4.501443971631524
sbsI135
g0
(g2518
g2
Ntp2934
Rp2935
(dp2936
g2522
g2721
sg2524
F9.951731252600684
sg2525
g2729
sg2527
I135
sg2528
F11.043486076113066
sbsI136
g0
(g2518
g2
Ntp2937
Rp2938
(dp2939
g2522
g2721
sg2524
F-13.78894897857464
sg2525
g2729
sg2527
I136
sg2528
F22.858920747375144
sbsI137
g0
(g2518
g2
Ntp2940
Rp2941
(dp2942
g2522
g2721
sg2524
F6.699922510303715
sg2525
g2729
sg2527
I137
sg2528
F7.225548971497694
sbsI138
g0
(g2518
g2
Ntp2943
Rp2944
(dp2945
g2522
g2721
sg2524
F6.2905558521035845
sg2525
g2729
sg2527
I138
sg2528
F5.103251421277246
sbsI139
g0
(g2518
g2
Ntp2946
Rp2947
(dp2948
g2522
g2721
sg2524
F2.9257944660317703
sg2525
g2729
sg2527
I139
sg2528
F9.445044700286065
sbsI140
g0
(g2518
g2
Ntp2949
Rp2950
(dp2951
g2522
g2721
sg2524
F-5.336924807112688
sg2525
g2729
sg2527
I140
sg2528
F4.274884735588183
sbsI141
g0
(g2518
g2
Ntp2952
Rp2953
(dp2954
g2522
g2721
sg2524
F-1.6721675637890345
sg2525
g2729
sg2527
I141
sg2528
F10.729327436594147
sbsI142
g0
(g2518
g2
Ntp2955
Rp2956
(dp2957
g2522
g2721
sg2524
F5.143850293776341
sg2525
g2729
sg2527
I142
sg2528
F12.329734874247222
sbsI143
g0
(g2518
g2
Ntp2958
Rp2959
(dp2960
g2522
g2721
sg2524
F7.360870136204348
sg2525
g2729
sg2527
I143
sg2528
F2.7947483531616784
sbsI144
g0
(g2518
g2
Ntp2961
Rp2962
(dp2963
g2522
g2721
sg2524
F-3.2772736717986284
sg2525
g2729
sg2527
I144
sg2528
F7.464187725766335
sbsI145
g0
(g2518
g2
Ntp2964
Rp2965
(dp2966
g2522
g2721
sg2524
F-2.1730222084851833
sg2525
g2729
sg2527
I145
sg2528
F-1.4814232027664649
sbsI146
g0
(g2518
g2
Ntp2967
Rp2968
(dp2969
g2522
g2721
sg2524
F-6.283834554374109
sg2525
g2729
sg2527
I146
sg2528
F-18.115182881681445
sbsI147
g0
(g2518
g2
Ntp2970
Rp2971
(dp2972
g2522
g2721
sg2524
F-5.040643447135911
sg2525
g2729
sg2527
I147
sg2528
F5.193034668235329
sbsI148
g0
(g2518
g2
Ntp2973
Rp2974
(dp2975
g2522
g2721
sg2524
F-2.402189827565324
sg2525
g2729
sg2527
I148
sg2528
F12.146362794281968
sbsI149
g0
(g2518
g2
Ntp2976
Rp2977
(dp2978
g2522
g2721
sg2524
F17.759434226404654
sg2525
g2729
sg2527
I149
sg2528
F-8.913875772762179
sbsI150
g0
(g2518
g2
Ntp2979
Rp2980
(dp2981
g2522
g2721
sg2524
F-15.6500009236774
sg2525
g2729
sg2527
I150
sg2528
F0.7961821949052719
sbsI151
g0
(g2518
g2
Ntp2982
Rp2983
(dp2984
g2522
g2721
sg2524
F1.6316223515932262
sg2525
g2729
sg2527
I151
sg2528
F7.964131053723948
sbsI152
g0
(g2518
g2
Ntp2985
Rp2986
(dp2987
g2522
g2721
sg2524
F3.7293098488893808
sg2525
g2729
sg2527
I152
sg2528
F7.987624972846149
sbsI153
g0
(g2518
g2
Ntp2988
Rp2989
(dp2990
g2522
g2721
sg2524
F-12.976149269094165
sg2525
g2729
sg2527
I153
sg2528
F5.20380095400234
sbsI154
g0
(g2518
g2
Ntp2991
Rp2992
(dp2993
g2522
g2721
sg2524
F-4.315703124309872
sg2525
g2729
sg2527
I154
sg2528
F-2.7032443701192594
sbsI155
g0
(g2518
g2
Ntp2994
Rp2995
(dp2996
g2522
g2721
sg2524
F-7.955389013413173
sg2525
g2729
sg2527
I155
sg2528
F12.178187351033221
sbsI156
g0
(g2518
g2
Ntp2997
Rp2998
(dp2999
g2522
g2721
sg2524
F6.53364700672102
sg2525
g2729
sg2527
I156
sg2528
F-0.8776250384793935
sbsI157
g0
(g2518
g2
Ntp3000
Rp3001
(dp3002
g2522
g2721
sg2524
F-14.017681083118788
sg2525
g2729
sg2527
I157
sg2528
F-1.5188292682625237
sbsI158
g0
(g2518
g2
Ntp3003
Rp3004
(dp3005
g2522
g2721
sg2524
F-9.973580052070007
sg2525
g2729
sg2527
I158
sg2528
F5.740093720656123
sbsI159
g0
(g2518
g2
Ntp3006
Rp3007
(dp3008
g2522
g2721
sg2524
F10.220079299308711
sg2525
g2729
sg2527
I159
sg2528
F12.945223937404958
sbsI160
g0
(g2518
g2
Ntp3009
Rp3010
(dp3011
g2522
g2721
sg2524
F-10.349519627711283
sg2525
g2729
sg2527
I160
sg2528
F5.615117704911333
sbsI161
g0
(g2518
g2
Ntp3012
Rp3013
(dp3014
g2522
g2721
sg2524
F5.701788742196661
sg2525
g2729
sg2527
I161
sg2528
F0.35225023256904753
sbsI162
g0
(g2518
g2
Ntp3015
Rp3016
(dp3017
g2522
g2721
sg2524
F3.112940373537799
sg2525
g2729
sg2527
I162
sg2528
F9.60666188292098
sbsI163
g0
(g2518
g2
Ntp3018
Rp3019
(dp3020
g2522
g2721
sg2524
F-1.5436267155651355
sg2525
g2729
sg2527
I163
sg2528
F23.12485129916952
sbsI164
g0
(g2518
g2
Ntp3021
Rp3022
(dp3023
g2522
g2721
sg2524
F1.2906283456098788
sg2525
g2729
sg2527
I164
sg2528
F-9.919143268640772
sbsI165
g0
(g2518
g2
Ntp3024
Rp3025
(dp3026
g2522
g2721
sg2524
F6.160584704913291
sg2525
g2729
sg2527
I165
sg2528
F-2.9733645635581754
sbsI166
g0
(g2518
g2
Ntp3027
Rp3028
(dp3029
g2522
g2721
sg2524
F-1.397191152076616
sg2525
g2729
sg2527
I166
sg2528
F2.941616285282578
sbsI167
g0
(g2518
g2
Ntp3030
Rp3031
(dp3032
g2522
g2721
sg2524
F3.0462134988110106
sg2525
g2729
sg2527
I167
sg2528
F8.667026743268835
sbsI168
g0
(g2518
g2
Ntp3033
Rp3034
(dp3035
g2522
g2721
sg2524
F9.328387386056612
sg2525
g2729
sg2527
I168
sg2528
F-0.7814777875926486
sbsI169
g0
(g2518
g2
Ntp3036
Rp3037
(dp3038
g2522
g2721
sg2524
F3.6940148599544442
sg2525
g2729
sg2527
I169
sg2528
F16.564798983697912
sbsI170
g0
(g2518
g2
Ntp3039
Rp3040
(dp3041
g2522
g2721
sg2524
F-14.67469627414038
sg2525
g2729
sg2527
I170
sg2528
F10.920726025268669
sbsI171
g0
(g2518
g2
Ntp3042
Rp3043
(dp3044
g2522
g2721
sg2524
F-2.8384340017510805
sg2525
g2729
sg2527
I171
sg2528
F15.366117522177502
sbsI172
g0
(g2518
g2
Ntp3045
Rp3046
(dp3047
g2522
g2721
sg2524
F-4.748283179930126
sg2525
g2729
sg2527
I172
sg2528
F4.318476682284998
sbsI173
g0
(g2518
g2
Ntp3048
Rp3049
(dp3050
g2522
g2721
sg2524
F-5.370711297542066
sg2525
g2729
sg2527
I173
sg2528
F2.3048235499404126
sbsI174
g0
(g2518
g2
Ntp3051
Rp3052
(dp3053
g2522
g2721
sg2524
F-4.992893735289353
sg2525
g2729
sg2527
I174
sg2528
F25.002942145386715
sbsI175
g0
(g2518
g2
Ntp3054
Rp3055
(dp3056
g2522
g2721
sg2524
F0.1719338489345388
sg2525
g2729
sg2527
I175
sg2528
F3.6878475757039095
sbsI176
g0
(g2518
g2
Ntp3057
Rp3058
(dp3059
g2522
g2721
sg2524
F0.3457089392961574
sg2525
g2729
sg2527
I176
sg2528
F9.313792100078153
sbsI177
g0
(g2518
g2
Ntp3060
Rp3061
(dp3062
g2522
g2721
sg2524
F-9.113322001235314
sg2525
g2729
sg2527
I177
sg2528
F6.1167031545259185
sbsI178
g0
(g2518
g2
Ntp3063
Rp3064
(dp3065
g2522
g2721
sg2524
F-8.376764598542184
sg2525
g2729
sg2527
I178
sg2528
F-7.900482424416417
sbsI179
g0
(g2518
g2
Ntp3066
Rp3067
(dp3068
g2522
g2721
sg2524
F4.264799450281516
sg2525
g2729
sg2527
I179
sg2528
F1.6642770499530517
sbsI180
g0
(g2518
g2
Ntp3069
Rp3070
(dp3071
g2522
g2721
sg2524
F-6.223579874227251
sg2525
g2729
sg2527
I180
sg2528
F11.04720292412391
sbsI181
g0
(g2518
g2
Ntp3072
Rp3073
(dp3074
g2522
g2721
sg2524
F22.052802996954675
sg2525
g2729
sg2527
I181
sg2528
F6.313222940184815
sbsI182
g0
(g2518
g2
Ntp3075
Rp3076
(dp3077
g2522
g2721
sg2524
F25.062344457794655
sg2525
g2729
sg2527
I182
sg2528
F2.356688306683631
sbsI183
g0
(g2518
g2
Ntp3078
Rp3079
(dp3080
g2522
g2721
sg2524
F3.0557277493379846
sg2525
g2729
sg2527
I183
sg2528
F-13.943016101815985
sbsI184
g0
(g2518
g2
Ntp3081
Rp3082
(dp3083
g2522
g2721
sg2524
F-11.605424758077199
sg2525
g2729
sg2527
I184
sg2528
F16.025600648373686
sbsI185
g0
(g2518
g2
Ntp3084
Rp3085
(dp3086
g2522
g2721
sg2524
F9.021805502792601
sg2525
g2729
sg2527
I185
sg2528
F-4.000086279292782
sbsI186
g0
(g2518
g2
Ntp3087
Rp3088
(dp3089
g2522
g2721
sg2524
F2.7823436491367346
sg2525
g2729
sg2527
I186
sg2528
F9.545770329020373
sbsI187
g0
(g2518
g2
Ntp3090
Rp3091
(dp3092
g2522
g2721
sg2524
F3.0257320106420647
sg2525
g2729
sg2527
I187
sg2528
F3.9831238799450204
sbsI188
g0
(g2518
g2
Ntp3093
Rp3094
(dp3095
g2522
g2721
sg2524
F8.574131886633525
sg2525
g2729
sg2527
I188
sg2528
F-0.634614262388913
sbsI189
g0
(g2518
g2
Ntp3096
Rp3097
(dp3098
g2522
g2721
sg2524
F-4.24299439745916
sg2525
g2729
sg2527
I189
sg2528
F-0.4094346412015091
sbsI190
g0
(g2518
g2
Ntp3099
Rp3100
(dp3101
g2522
g2721
sg2524
F-21.721189530946052
sg2525
g2729
sg2527
I190
sg2528
F10.423261622524766
sbsI191
g0
(g2518
g2
Ntp3102
Rp3103
(dp3104
g2522
g2721
sg2524
F-6.762217935782887
sg2525
g2729
sg2527
I191
sg2528
F-3.7385107253658805
sbsI192
g0
(g2518
g2
Ntp3105
Rp3106
(dp3107
g2522
g2721
sg2524
F16.31191226103147
sg2525
g2729
sg2527
I192
sg2528
F25.13998074286074
sbsI193
g0
(g2518
g2
Ntp3108
Rp3109
(dp3110
g2522
g2721
sg2524
F-0.46265199877321384
sg2525
g2729
sg2527
I193
sg2528
F0.13665388830874597
sbsI194
g0
(g2518
g2
Ntp3111
Rp3112
(dp3113
g2522
g2721
sg2524
F11.21565937247965
sg2525
g2729
sg2527
I194
sg2528
F19.585033883354363
sbsI195
g0
(g2518
g2
Ntp3114
Rp3115
(dp3116
g2522
g2721
sg2524
F-2.225616161168953
sg2525
g2729
sg2527
I195
sg2528
F8.115150962016795
sbsI196
g0
(g2518
g2
Ntp3117
Rp3118
(dp3119
g2522
g2721
sg2524
F-3.545233597798383
sg2525
g2729
sg2527
I196
sg2528
F1.0832389489981191
sbsI197
g0
(g2518
g2
Ntp3120
Rp3121
(dp3122
g2522
g2721
sg2524
F-3.2612753754658437
sg2525
g2729
sg2527
I197
sg2528
F11.853145687948622
sbsI198
g0
(g2518
g2
Ntp3123
Rp3124
(dp3125
g2522
g2721
sg2524
F-7.120007530861632
sg2525
g2729
sg2527
I198
sg2528
F2.8344292113040064
sbsI199
g0
(g2518
g2
Ntp3126
Rp3127
(dp3128
g2522
g2721
sg2524
F8.579195464717142
sg2525
g2729
sg2527
I199
sg2528
F-0.5539768676577752
sbsI200
g0
(g2518
g2
Ntp3129
Rp3130
(dp3131
g2522
g2721
sg2524
F-7.831413530768579
sg2525
g2729
sg2527
I200
sg2528
F10.904180817074216
sbsI201
g0
(g2518
g2
Ntp3132
Rp3133
(dp3134
g2522
g2721
sg2524
F-4.038735608063338
sg2525
g2729
sg2527
I201
sg2528
F14.01004899856705
sbsI202
g0
(g2518
g2
Ntp3135
Rp3136
(dp3137
g2522
g2721
sg2524
F-7.160723734006537
sg2525
g2729
sg2527
I202
sg2528
F-10.24373411207315
sbsI203
g0
(g2518
g2
Ntp3138
Rp3139
(dp3140
g2522
g2721
sg2524
F17.896837704772786
sg2525
g2729
sg2527
I203
sg2528
F7.454269851555449
sbsI204
g0
(g2518
g2
Ntp3141
Rp3142
(dp3143
g2522
g2721
sg2524
F-8.031527558985944
sg2525
g2729
sg2527
I204
sg2528
F-10.62132765579262
sbsI205
g0
(g2518
g2
Ntp3144
Rp3145
(dp3146
g2522
g2721
sg2524
F9.769190487166135
sg2525
g2729
sg2527
I205
sg2528
F22.386160078446686
sbsI206
g0
(g2518
g2
Ntp3147
Rp3148
(dp3149
g2522
g2721
sg2524
F4.9689319605547615
sg2525
g2729
sg2527
I206
sg2528
F4.0051978086603635
sbsI207
g0
(g2518
g2
Ntp3150
Rp3151
(dp3152
g2522
g2721
sg2524
F-4.608187475905825
sg2525
g2729
sg2527
I207
sg2528
F-2.0615609291150014
sbsI208
g0
(g2518
g2
Ntp3153
Rp3154
(dp3155
g2522
g2721
sg2524
F-32.8379954479519
sg2525
g2729
sg2527
I208
sg2528
F-16.34757217003212
sbsI209
g0
(g2518
g2
Ntp3156
Rp3157
(dp3158
g2522
g2721
sg2524
F1.4779222930323916
sg2525
g2729
sg2527
I209
sg2528
F13.394101551475584
sbsI210
g0
(g2518
g2
Ntp3159
Rp3160
(dp3161
g2522
g2721
sg2524
F0.881474417515729
sg2525
g2729
sg2527
I210
sg2528
F3.3189067708627418
sbsI211
g0
(g2518
g2
Ntp3162
Rp3163
(dp3164
g2522
g2721
sg2524
F-13.457769088884119
sg2525
g2729
sg2527
I211
sg2528
F2.5565594154449656
sbsI212
g0
(g2518
g2
Ntp3165
Rp3166
(dp3167
g2522
g2721
sg2524
F-1.9826039823694102
sg2525
g2729
sg2527
I212
sg2528
F1.3275543354448
sbsI213
g0
(g2518
g2
Ntp3168
Rp3169
(dp3170
g2522
g2721
sg2524
F-3.880263635452145
sg2525
g2729
sg2527
I213
sg2528
F4.353620236608603
sbsI214
g0
(g2518
g2
Ntp3171
Rp3172
(dp3173
g2522
g2721
sg2524
F-1.3993769434048375
sg2525
g2729
sg2527
I214
sg2528
F7.537316792159287
sbsI215
g0
(g2518
g2
Ntp3174
Rp3175
(dp3176
g2522
g2721
sg2524
F5.4696673494029
sg2525
g2729
sg2527
I215
sg2528
F-3.2242485880279688
sbsI216
g0
(g2518
g2
Ntp3177
Rp3178
(dp3179
g2522
g2721
sg2524
F6.2360546413476925
sg2525
g2729
sg2527
I216
sg2528
F1.7254871422697122
sbsI217
g0
(g2518
g2
Ntp3180
Rp3181
(dp3182
g2522
g2721
sg2524
F8.374876669026198
sg2525
g2729
sg2527
I217
sg2528
F9.041760790713026
sbsI218
g0
(g2518
g2
Ntp3183
Rp3184
(dp3185
g2522
g2721
sg2524
F4.487413164794298
sg2525
g2729
sg2527
I218
sg2528
F5.721791653012429
sbsI219
g0
(g2518
g2
Ntp3186
Rp3187
(dp3188
g2522
g2721
sg2524
F9.162935718058412
sg2525
g2729
sg2527
I219
sg2528
F9.395229349628092
sbsI220
g0
(g2518
g2
Ntp3189
Rp3190
(dp3191
g2522
g2721
sg2524
F9.34969485372466
sg2525
g2729
sg2527
I220
sg2528
F13.943043424081985
sbsI221
g0
(g2518
g2
Ntp3192
Rp3193
(dp3194
g2522
g2721
sg2524
F-12.226868804114577
sg2525
g2729
sg2527
I221
sg2528
F7.661999206844623
sbsI222
g0
(g2518
g2
Ntp3195
Rp3196
(dp3197
g2522
g2721
sg2524
F-3.6459425815147672
sg2525
g2729
sg2527
I222
sg2528
F4.004480871104496
sbsI223
g0
(g2518
g2
Ntp3198
Rp3199
(dp3200
g2522
g2721
sg2524
F-14.477611926036824
sg2525
g2729
sg2527
I223
sg2528
F16.612802512874758
sbsI224
g0
(g2518
g2
Ntp3201
Rp3202
(dp3203
g2522
g2721
sg2524
F14.450562846433176
sg2525
g2729
sg2527
I224
sg2528
F-3.6190140171317
sbsI225
g0
(g2518
g2
Ntp3204
Rp3205
(dp3206
g2522
g2721
sg2524
F-3.80608852985025
sg2525
g2729
sg2527
I225
sg2528
F10.505576575741484
sbsI226
g0
(g2518
g2
Ntp3207
Rp3208
(dp3209
g2522
g2721
sg2524
F1.9109506569040524
sg2525
g2729
sg2527
I226
sg2528
F11.354817186766846
sbsI227
g0
(g2518
g2
Ntp3210
Rp3211
(dp3212
g2522
g2721
sg2524
F7.772040685755259
sg2525
g2729
sg2527
I227
sg2528
F13.546257330755854
sbsI228
g0
(g2518
g2
Ntp3213
Rp3214
(dp3215
g2522
g2721
sg2524
F12.427554050105726
sg2525
g2729
sg2527
I228
sg2528
F5.795043346066636
sbsI229
g0
(g2518
g2
Ntp3216
Rp3217
(dp3218
g2522
g2721
sg2524
F-12.4385187252287
sg2525
g2729
sg2527
I229
sg2528
F10.837832003833483
sbsI230
g0
(g2518
g2
Ntp3219
Rp3220
(dp3221
g2522
g2721
sg2524
F-13.769052859891493
sg2525
g2729
sg2527
I230
sg2528
F10.906499735779905
sbsI231
g0
(g2518
g2
Ntp3222
Rp3223
(dp3224
g2522
g2721
sg2524
F1.511732711297597
sg2525
g2729
sg2527
I231
sg2528
F-3.737303108130673
sbsI232
g0
(g2518
g2
Ntp3225
Rp3226
(dp3227
g2522
g2721
sg2524
F0.1413518376138618
sg2525
g2729
sg2527
I232
sg2528
F7.45715389734773
sbsI233
g0
(g2518
g2
Ntp3228
Rp3229
(dp3230
g2522
g2721
sg2524
F-0.9728541398494845
sg2525
g2729
sg2527
I233
sg2528
F9.736162832888876
sbsI234
g0
(g2518
g2
Ntp3231
Rp3232
(dp3233
g2522
g2721
sg2524
F-1.1448405235908425
sg2525
g2729
sg2527
I234
sg2528
F4.58669435534936
sbsI235
g0
(g2518
g2
Ntp3234
Rp3235
(dp3236
g2522
g2721
sg2524
F-19.84853381921585
sg2525
g2729
sg2527
I235
sg2528
F6.785644967590506
sbsI236
g0
(g2518
g2
Ntp3237
Rp3238
(dp3239
g2522
g2721
sg2524
F1.4399220382149394
sg2525
g2729
sg2527
I236
sg2528
F-1.9093257260043566
sbsI237
g0
(g2518
g2
Ntp3240
Rp3241
(dp3242
g2522
g2721
sg2524
F-2.7350315465591164
sg2525
g2729
sg2527
I237
sg2528
F4.9499002996031285
sbsI238
g0
(g2518
g2
Ntp3243
Rp3244
(dp3245
g2522
g2721
sg2524
F-2.035768703234352
sg2525
g2729
sg2527
I238
sg2528
F6.968261049939741
sbsI239
g0
(g2518
g2
Ntp3246
Rp3247
(dp3248
g2522
g2721
sg2524
F-4.718293022029158
sg2525
g2729
sg2527
I239
sg2528
F-0.006141495953308873
sbsI240
g0
(g2518
g2
Ntp3249
Rp3250
(dp3251
g2522
g2721
sg2524
F-4.289093033960181
sg2525
g2729
sg2527
I240
sg2528
F-9.867729272722764
sbsI241
g0
(g2518
g2
Ntp3252
Rp3253
(dp3254
g2522
g2721
sg2524
F-3.8662532647834116
sg2525
g2729
sg2527
I241
sg2528
F-0.7297709702971068
sbsI242
g0
(g2518
g2
Ntp3255
Rp3256
(dp3257
g2522
g2721
sg2524
F-11.774888940549683
sg2525
g2729
sg2527
I242
sg2528
F14.55611237708746
sbsI243
g0
(g2518
g2
Ntp3258
Rp3259
(dp3260
g2522
g2721
sg2524
F6.187706086996182
sg2525
g2729
sg2527
I243
sg2528
F17.395488588718194
sbsI244
g0
(g2518
g2
Ntp3261
Rp3262
(dp3263
g2522
g2721
sg2524
F4.503086925143136
sg2525
g2729
sg2527
I244
sg2528
F5.4101543839660655
sbsI245
g0
(g2518
g2
Ntp3264
Rp3265
(dp3266
g2522
g2721
sg2524
F12.773124112284233
sg2525
g2729
sg2527
I245
sg2528
F4.025269952964497
sbsI246
g0
(g2518
g2
Ntp3267
Rp3268
(dp3269
g2522
g2721
sg2524
F6.939007918945225
sg2525
g2729
sg2527
I246
sg2528
F-1.8993051981754154
sbsI247
g0
(g2518
g2
Ntp3270
Rp3271
(dp3272
g2522
g2721
sg2524
F-9.805692154171624
sg2525
g2729
sg2527
I247
sg2528
F2.993031098071133
sbsI248
g0
(g2518
g2
Ntp3273
Rp3274
(dp3275
g2522
g2721
sg2524
F-4.660872836801557
sg2525
g2729
sg2527
I248
sg2528
F-4.3741100105705994
sbsI249
g0
(g2518
g2
Ntp3276
Rp3277
(dp3278
g2522
g2721
sg2524
F-10.447626805118087
sg2525
g2729
sg2527
I249
sg2528
F16.097064925094266
sbsI250
g0
(g2518
g2
Ntp3279
Rp3280
(dp3281
g2522
g2721
sg2524
F10.36857991113788
sg2525
g2729
sg2527
I250
sg2528
F4.978160810835121
sbsI251
g0
(g2518
g2
Ntp3282
Rp3283
(dp3284
g2522
g2721
sg2524
F-11.981186737667954
sg2525
g2729
sg2527
I251
sg2528
F17.385737632240836
sbsI252
g0
(g2518
g2
Ntp3285
Rp3286
(dp3287
g2522
g2721
sg2524
F-0.01045321761348647
sg2525
g2729
sg2527
I252
sg2528
F2.3989237204221228
sbsI253
g0
(g2518
g2
Ntp3288
Rp3289
(dp3290
g2522
g2721
sg2524
F-9.996406064456481
sg2525
g2729
sg2527
I253
sg2528
F14.933727322093732
sbsI254
g0
(g2518
g2
Ntp3291
Rp3292
(dp3293
g2522
g2721
sg2524
F-11.216246020786185
sg2525
g2729
sg2527
I254
sg2528
F6.8784704050829255
sbsI255
g0
(g2518
g2
Ntp3294
Rp3295
(dp3296
g2522
g2721
sg2524
F5.632648058778332
sg2525
g2729
sg2527
I255
sg2528
F6.719335234183053
sbsI256
g0
(g2518
g2
Ntp3297
Rp3298
(dp3299
g2522
g2721
sg2524
F-1.9203379666840787
sg2525
g2729
sg2527
I256
sg2528
F7.527500298057178
sbsI257
g0
(g2518
g2
Ntp3300
Rp3301
(dp3302
g2522
g2721
sg2524
F-0.5286213849870607
sg2525
g2729
sg2527
I257
sg2528
F-2.770484805014316
sbsI258
g0
(g2518
g2
Ntp3303
Rp3304
(dp3305
g2522
g2721
sg2524
F-13.078293894947663
sg2525
g2729
sg2527
I258
sg2528
F3.8797498181312844
sbsI259
g0
(g2518
g2
Ntp3306
Rp3307
(dp3308
g2522
g2721
sg2524
F-4.518812429295256
sg2525
g2729
sg2527
I259
sg2528
F11.000597486549152
sbsI260
g0
(g2518
g2
Ntp3309
Rp3310
(dp3311
g2522
g2721
sg2524
F8.357906820476012
sg2525
g2729
sg2527
I260
sg2528
F0.2286370118203705
sbsI261
g0
(g2518
g2
Ntp3312
Rp3313
(dp3314
g2522
g2721
sg2524
F-2.190574590709403
sg2525
g2729
sg2527
I261
sg2528
F-1.585025935064368
sbsI262
g0
(g2518
g2
Ntp3315
Rp3316
(dp3317
g2522
g2721
sg2524
F-0.20502285001541545
sg2525
g2729
sg2527
I262
sg2528
F-2.116200979148135
sbsI263
g0
(g2518
g2
Ntp3318
Rp3319
(dp3320
g2522
g2721
sg2524
F6.562988463467447
sg2525
g2729
sg2527
I263
sg2528
F14.579278937563396
sbsI264
g0
(g2518
g2
Ntp3321
Rp3322
(dp3323
g2522
g2721
sg2524
F5.89787117693539
sg2525
g2729
sg2527
I264
sg2528
F1.2972868658775978
sbsI265
g0
(g2518
g2
Ntp3324
Rp3325
(dp3326
g2522
g2721
sg2524
F3.1476000020804134
sg2525
g2729
sg2527
I265
sg2528
F12.055531088206411
sbsI266
g0
(g2518
g2
Ntp3327
Rp3328
(dp3329
g2522
g2721
sg2524
F3.786376618516954
sg2525
g2729
sg2527
I266
sg2528
F14.03308247700231
sbsI267
g0
(g2518
g2
Ntp3330
Rp3331
(dp3332
g2522
g2721
sg2524
F3.502270178404226
sg2525
g2729
sg2527
I267
sg2528
F7.515217316030447
sbsI268
g0
(g2518
g2
Ntp3333
Rp3334
(dp3335
g2522
g2721
sg2524
F4.451060070963905
sg2525
g2729
sg2527
I268
sg2528
F7.346843787540349
sbsI269
g0
(g2518
g2
Ntp3336
Rp3337
(dp3338
g2522
g2721
sg2524
F1.8462079282410069
sg2525
g2729
sg2527
I269
sg2528
F8.846137786791054
sbsI270
g0
(g2518
g2
Ntp3339
Rp3340
(dp3341
g2522
g2721
sg2524
F1.680524137448175
sg2525
g2729
sg2527
I270
sg2528
F5.757202649681409
sbsI271
g0
(g2518
g2
Ntp3342
Rp3343
(dp3344
g2522
g2721
sg2524
F5.414996867482576
sg2525
g2729
sg2527
I271
sg2528
F13.069253519717668
sbsI272
g0
(g2518
g2
Ntp3345
Rp3346
(dp3347
g2522
g2721
sg2524
F0.4877460941741595
sg2525
g2729
sg2527
I272
sg2528
F16.876200111093198
sbsI273
g0
(g2518
g2
Ntp3348
Rp3349
(dp3350
g2522
g2721
sg2524
F3.81077268479959
sg2525
g2729
sg2527
I273
sg2528
F8.846538945072519
sbsI274
g0
(g2518
g2
Ntp3351
Rp3352
(dp3353
g2522
g2721
sg2524
F11.20278213044018
sg2525
g2729
sg2527
I274
sg2528
F2.7959426070345987
sbsI275
g0
(g2518
g2
Ntp3354
Rp3355
(dp3356
g2522
g2721
sg2524
F1.6660258743215541
sg2525
g2729
sg2527
I275
sg2528
F-0.9298781100095121
sbsI276
g0
(g2518
g2
Ntp3357
Rp3358
(dp3359
g2522
g2721
sg2524
F-0.8286296356859706
sg2525
g2729
sg2527
I276
sg2528
F4.774255326738023
sbsI277
g0
(g2518
g2
Ntp3360
Rp3361
(dp3362
g2522
g2721
sg2524
F0.41915339201318635
sg2525
g2729
sg2527
I277
sg2528
F1.3821803282321419
sbsI278
g0
(g2518
g2
Ntp3363
Rp3364
(dp3365
g2522
g2721
sg2524
F4.299985081655168
sg2525
g2729
sg2527
I278
sg2528
F1.9214324647407584
sbsI279
g0
(g2518
g2
Ntp3366
Rp3367
(dp3368
g2522
g2721
sg2524
F1.9656043598229724
sg2525
g2729
sg2527
I279
sg2528
F7.629087406475535
sbsI280
g0
(g2518
g2
Ntp3369
Rp3370
(dp3371
g2522
g2721
sg2524
F6.250240934425843
sg2525
g2729
sg2527
I280
sg2528
F2.5431769848394072
sbsI281
g0
(g2518
g2
Ntp3372
Rp3373
(dp3374
g2522
g2721
sg2524
F14.17786402798777
sg2525
g2729
sg2527
I281
sg2528
F-4.251156305234487
sbsI282
g0
(g2518
g2
Ntp3375
Rp3376
(dp3377
g2522
g2721
sg2524
F-6.639048959133339
sg2525
g2729
sg2527
I282
sg2528
F5.487489041621522
sbsI283
g0
(g2518
g2
Ntp3378
Rp3379
(dp3380
g2522
g2721
sg2524
F0.18741508255345998
sg2525
g2729
sg2527
I283
sg2528
F5.169384751653132
sbsI284
g0
(g2518
g2
Ntp3381
Rp3382
(dp3383
g2522
g2721
sg2524
F-6.5119077051404775
sg2525
g2729
sg2527
I284
sg2528
F4.116323820227041
sbsI285
g0
(g2518
g2
Ntp3384
Rp3385
(dp3386
g2522
g2721
sg2524
F-6.686272612026171
sg2525
g2729
sg2527
I285
sg2528
F-7.049975171211038
sbsI286
g0
(g2518
g2
Ntp3387
Rp3388
(dp3389
g2522
g2721
sg2524
F1.2020853919597854
sg2525
g2729
sg2527
I286
sg2528
F4.285346149792627
sbsI287
g0
(g2518
g2
Ntp3390
Rp3391
(dp3392
g2522
g2721
sg2524
F-5.996919242532981
sg2525
g2729
sg2527
I287
sg2528
F6.584012293962115
sbsI288
g0
(g2518
g2
Ntp3393
Rp3394
(dp3395
g2522
g2721
sg2524
F-2.2879090410028238
sg2525
g2729
sg2527
I288
sg2528
F4.166520884065192
sbsI289
g0
(g2518
g2
Ntp3396
Rp3397
(dp3398
g2522
g2721
sg2524
F-6.782218632427482
sg2525
g2729
sg2527
I289
sg2528
F8.916824623508777
sbsI290
g0
(g2518
g2
Ntp3399
Rp3400
(dp3401
g2522
g2721
sg2524
F6.539404593278303
sg2525
g2729
sg2527
I290
sg2528
F11.996636867709467
sbsI291
g0
(g2518
g2
Ntp3402
Rp3403
(dp3404
g2522
g2721
sg2524
F-7.144962154397859
sg2525
g2729
sg2527
I291
sg2528
F0.7983368150023283
sbsI292
g0
(g2518
g2
Ntp3405
Rp3406
(dp3407
g2522
g2721
sg2524
F-4.656893704683922
sg2525
g2729
sg2527
I292
sg2528
F0.47040720682044646
sbsI293
g0
(g2518
g2
Ntp3408
Rp3409
(dp3410
g2522
g2721
sg2524
F2.3922688958517195
sg2525
g2729
sg2527
I293
sg2528
F11.839750548018351
sbsI294
g0
(g2518
g2
Ntp3411
Rp3412
(dp3413
g2522
g2721
sg2524
F5.542224531256921
sg2525
g2729
sg2527
I294
sg2528
F-6.419214361436467
sbsI295
g0
(g2518
g2
Ntp3414
Rp3415
(dp3416
g2522
g2721
sg2524
F-9.236984607632687
sg2525
g2729
sg2527
I295
sg2528
F12.356449334491447
sbsI296
g0
(g2518
g2
Ntp3417
Rp3418
(dp3419
g2522
g2721
sg2524
F-9.321841809741285
sg2525
g2729
sg2527
I296
sg2528
F3.534240232806507
sbsI297
g0
(g2518
g2
Ntp3420
Rp3421
(dp3422
g2522
g2721
sg2524
F-4.97180678719862
sg2525
g2729
sg2527
I297
sg2528
F-0.04865408310004843
sbsI298
g0
(g2518
g2
Ntp3423
Rp3424
(dp3425
g2522
g2721
sg2524
F3.016069969198402
sg2525
g2729
sg2527
I298
sg2528
F9.385842697346417
sbsI299
g0
(g2518
g2
Ntp3426
Rp3427
(dp3428
g2522
g2721
sg2524
F0.8318499184653259
sg2525
g2729
sg2527
I299
sg2528
F5.475372814774005
sbsI300
g0
(g2518
g2
Ntp3429
Rp3430
(dp3431
g2522
g2721
sg2524
F7.340936141393438
sg2525
g2729
sg2527
I300
sg2528
F7.463991929638495
sbsI301
g0
(g2518
g2
Ntp3432
Rp3433
(dp3434
g2522
g2721
sg2524
F-4.735914437670681
sg2525
g2729
sg2527
I301
sg2528
F4.831265716269404
sbsI302
g0
(g2518
g2
Ntp3435
Rp3436
(dp3437
g2522
g2721
sg2524
F-4.264118067823829
sg2525
g2729
sg2527
I302
sg2528
F11.80710689929778
sbsI303
g0
(g2518
g2
Ntp3438
Rp3439
(dp3440
g2522
g2721
sg2524
F-3.5860888396412687
sg2525
g2729
sg2527
I303
sg2528
F11.667457227647061
sbsI304
g0
(g2518
g2
Ntp3441
Rp3442
(dp3443
g2522
g2721
sg2524
F3.7637494712701405
sg2525
g2729
sg2527
I304
sg2528
F7.005242860019505
sbsI305
g0
(g2518
g2
Ntp3444
Rp3445
(dp3446
g2522
g2721
sg2524
F-4.439174672484546
sg2525
g2729
sg2527
I305
sg2528
F2.624159556253595
sbsI306
g0
(g2518
g2
Ntp3447
Rp3448
(dp3449
g2522
g2721
sg2524
F5.223238213065434
sg2525
g2729
sg2527
I306
sg2528
F4.320428004660171
sbsI307
g0
(g2518
g2
Ntp3450
Rp3451
(dp3452
g2522
g2721
sg2524
F10.137319564904747
sg2525
g2729
sg2527
I307
sg2528
F11.546711623184715
sbsI308
g0
(g2518
g2
Ntp3453
Rp3454
(dp3455
g2522
g2721
sg2524
F-10.692925018428047
sg2525
g2729
sg2527
I308
sg2528
F11.700603970447863
sbsI309
g0
(g2518
g2
Ntp3456
Rp3457
(dp3458
g2522
g2721
sg2524
F9.02261730050768
sg2525
g2729
sg2527
I309
sg2528
F6.50109216192927
sbsI310
g0
(g2518
g2
Ntp3459
Rp3460
(dp3461
g2522
g2721
sg2524
F1.009109545561332
sg2525
g2729
sg2527
I310
sg2528
F10.135975017212171
sbsI311
g0
(g2518
g2
Ntp3462
Rp3463
(dp3464
g2522
g2721
sg2524
F1.1549635234103126
sg2525
g2729
sg2527
I311
sg2528
F3.8557003541256627
sbsI312
g0
(g2518
g2
Ntp3465
Rp3466
(dp3467
g2522
g2721
sg2524
F2.45895041921117
sg2525
g2729
sg2527
I312
sg2528
F-1.220820618808063
sbsI313
g0
(g2518
g2
Ntp3468
Rp3469
(dp3470
g2522
g2721
sg2524
F2.5858521264577305
sg2525
g2729
sg2527
I313
sg2528
F2.1951884895729536
sbsI314
g0
(g2518
g2
Ntp3471
Rp3472
(dp3473
g2522
g2721
sg2524
F-2.959409889608648
sg2525
g2729
sg2527
I314
sg2528
F8.667730497035887
sbsI315
g0
(g2518
g2
Ntp3474
Rp3475
(dp3476
g2522
g2721
sg2524
F1.6397667488894858
sg2525
g2729
sg2527
I315
sg2528
F3.962000132618682
sbsI316
g0
(g2518
g2
Ntp3477
Rp3478
(dp3479
g2522
g2721
sg2524
F13.296847429077284
sg2525
g2729
sg2527
I316
sg2528
F-0.340365182134092
sbsI317
g0
(g2518
g2
Ntp3480
Rp3481
(dp3482
g2522
g2721
sg2524
F5.9185607411144545
sg2525
g2729
sg2527
I317
sg2528
F4.479196876134011
sbsI318
g0
(g2518
g2
Ntp3483
Rp3484
(dp3485
g2522
g2721
sg2524
F6.4437051075744725
sg2525
g2729
sg2527
I318
sg2528
F6.941047477898583
sbsI319
g0
(g2518
g2
Ntp3486
Rp3487
(dp3488
g2522
g2721
sg2524
F9.532021297743889
sg2525
g2729
sg2527
I319
sg2528
F7.040599931616171
sbsI320
g0
(g2518
g2
Ntp3489
Rp3490
(dp3491
g2522
g2721
sg2524
F1.1098177363702395
sg2525
g2729
sg2527
I320
sg2528
F-3.847234151235698
sbsI321
g0
(g2518
g2
Ntp3492
Rp3493
(dp3494
g2522
g2721
sg2524
F1.3382089037994596
sg2525
g2729
sg2527
I321
sg2528
F-1.8189279166571755
sbsI322
g0
(g2518
g2
Ntp3495
Rp3496
(dp3497
g2522
g2721
sg2524
F-3.3958723092218497
sg2525
g2729
sg2527
I322
sg2528
F8.929235438061253
sbsI323
g0
(g2518
g2
Ntp3498
Rp3499
(dp3500
g2522
g2721
sg2524
F5.211472405734695
sg2525
g2729
sg2527
I323
sg2528
F4.778930389185486
sbsI324
g0
(g2518
g2
Ntp3501
Rp3502
(dp3503
g2522
g2721
sg2524
F-3.140167053000464
sg2525
g2729
sg2527
I324
sg2528
F0.4622326033661504
sbsI325
g0
(g2518
g2
Ntp3504
Rp3505
(dp3506
g2522
g2721
sg2524
F4.742945143953731
sg2525
g2729
sg2527
I325
sg2528
F7.129495831908402
sbsI326
g0
(g2518
g2
Ntp3507
Rp3508
(dp3509
g2522
g2721
sg2524
F1.463962096857406
sg2525
g2729
sg2527
I326
sg2528
F5.724365801332105
sbsI327
g0
(g2518
g2
Ntp3510
Rp3511
(dp3512
g2522
g2721
sg2524
F2.2556127500720957
sg2525
g2729
sg2527
I327
sg2528
F-2.293822180244007
sbsI328
g0
(g2518
g2
Ntp3513
Rp3514
(dp3515
g2522
g2721
sg2524
F0.7527885750014955
sg2525
g2729
sg2527
I328
sg2528
F9.054764041963052
sbsI329
g0
(g2518
g2
Ntp3516
Rp3517
(dp3518
g2522
g2721
sg2524
F-3.1152202131930697
sg2525
g2729
sg2527
I329
sg2528
F3.415238531394395
sbsI330
g0
(g2518
g2
Ntp3519
Rp3520
(dp3521
g2522
g2721
sg2524
F5.760486901490877
sg2525
g2729
sg2527
I330
sg2528
F7.469233120549201
sbsI331
g0
(g2518
g2
Ntp3522
Rp3523
(dp3524
g2522
g2721
sg2524
F-0.14356731611771423
sg2525
g2729
sg2527
I331
sg2528
F4.44514583265359
sbsI332
g0
(g2518
g2
Ntp3525
Rp3526
(dp3527
g2522
g2721
sg2524
F-2.9112540881249727
sg2525
g2729
sg2527
I332
sg2528
F6.675921533434223
sbsI333
g0
(g2518
g2
Ntp3528
Rp3529
(dp3530
g2522
g2721
sg2524
F-2.888760695230401
sg2525
g2729
sg2527
I333
sg2528
F-0.5294786781793879
sbsI334
g0
(g2518
g2
Ntp3531
Rp3532
(dp3533
g2522
g2721
sg2524
F-0.6695522245250706
sg2525
g2729
sg2527
I334
sg2528
F2.6952336624029125
sbsI335
g0
(g2518
g2
Ntp3534
Rp3535
(dp3536
g2522
g2721
sg2524
F-2.6802363521447594
sg2525
g2729
sg2527
I335
sg2528
F3.9030927582398753
sbsI336
g0
(g2518
g2
Ntp3537
Rp3538
(dp3539
g2522
g2721
sg2524
F3.046773254410519
sg2525
g2729
sg2527
I336
sg2528
F6.284677205748968
sbsI337
g0
(g2518
g2
Ntp3540
Rp3541
(dp3542
g2522
g2721
sg2524
F-5.857671242515676
sg2525
g2729
sg2527
I337
sg2528
F3.2400536327214495
sbsI338
g0
(g2518
g2
Ntp3543
Rp3544
(dp3545
g2522
g2721
sg2524
F1.333913535888897
sg2525
g2729
sg2527
I338
sg2528
F9.75070494122804
sbsI339
g0
(g2518
g2
Ntp3546
Rp3547
(dp3548
g2522
g2721
sg2524
F1.4297072867989702
sg2525
g2729
sg2527
I339
sg2528
F4.2902869704381095
sbsI340
g0
(g2518
g2
Ntp3549
Rp3550
(dp3551
g2522
g2721
sg2524
F1.7868188000465814
sg2525
g2729
sg2527
I340
sg2528
F4.571388664601433
sbsI341
g0
(g2518
g2
Ntp3552
Rp3553
(dp3554
g2522
g2721
sg2524
F-3.244767684154497
sg2525
g2729
sg2527
I341
sg2528
F2.505221267607361
sbsI342
g0
(g2518
g2
Ntp3555
Rp3556
(dp3557
g2522
g2721
sg2524
F-1.813953277888127
sg2525
g2729
sg2527
I342
sg2528
F6.764987060144917
sbsI343
g0
(g2518
g2
Ntp3558
Rp3559
(dp3560
g2522
g2721
sg2524
F-1.6667839876486852
sg2525
g2729
sg2527
I343
sg2528
F9.693022052565095
sbsI344
g0
(g2518
g2
Ntp3561
Rp3562
(dp3563
g2522
g2721
sg2524
F-1.1738411047331176
sg2525
g2729
sg2527
I344
sg2528
F3.0883703779265823
sbsI345
g0
(g2518
g2
Ntp3564
Rp3565
(dp3566
g2522
g2721
sg2524
F-0.2410512885063794
sg2525
g2729
sg2527
I345
sg2528
F8.68643332741452
sbsI346
g0
(g2518
g2
Ntp3567
Rp3568
(dp3569
g2522
g2721
sg2524
F-1.868893714787084
sg2525
g2729
sg2527
I346
sg2528
F-0.5564650341702919
sbsI347
g0
(g2518
g2
Ntp3570
Rp3571
(dp3572
g2522
g2721
sg2524
F3.985458544616635
sg2525
g2729
sg2527
I347
sg2528
F6.928220710784189
sbsI348
g0
(g2518
g2
Ntp3573
Rp3574
(dp3575
g2522
g2721
sg2524
F-3.4418107909545794
sg2525
g2729
sg2527
I348
sg2528
F5.1880987924992175
sbsI349
g0
(g2518
g2
Ntp3576
Rp3577
(dp3578
g2522
g2721
sg2524
F-0.4019402720954412
sg2525
g2729
sg2527
I349
sg2528
F-0.20986473454626065
sbsI350
g0
(g2518
g2
Ntp3579
Rp3580
(dp3581
g2522
g2721
sg2524
F0.0053747275189313035
sg2525
g2729
sg2527
I350
sg2528
F3.026665803795999
sbsI351
g0
(g2518
g2
Ntp3582
Rp3583
(dp3584
g2522
g2721
sg2524
F2.163537004798072
sg2525
g2729
sg2527
I351
sg2528
F4.73786909411207
sbsI352
g0
(g2518
g2
Ntp3585
Rp3586
(dp3587
g2522
g2721
sg2524
F1.60395735035315
sg2525
g2729
sg2527
I352
sg2528
F4.563252618836647
sbsI353
g0
(g2518
g2
Ntp3588
Rp3589
(dp3590
g2522
g2721
sg2524
F-0.7338354411291513
sg2525
g2729
sg2527
I353
sg2528
F3.7803430333195482
sbsI354
g0
(g2518
g2
Ntp3591
Rp3592
(dp3593
g2522
g2721
sg2524
F2.4176138345798615
sg2525
g2729
sg2527
I354
sg2528
F2.9019164262401587
sbsI355
g0
(g2518
g2
Ntp3594
Rp3595
(dp3596
g2522
g2721
sg2524
F-0.640294238018146
sg2525
g2729
sg2527
I355
sg2528
F3.0541850781571167
sbsI356
g0
(g2518
g2
Ntp3597
Rp3598
(dp3599
g2522
g2721
sg2524
F0.32472040539390634
sg2525
g2729
sg2527
I356
sg2528
F4.803789409320351
sbsI357
g0
(g2518
g2
Ntp3600
Rp3601
(dp3602
g2522
g2721
sg2524
F0.8122157790491191
sg2525
g2729
sg2527
I357
sg2528
F4.033684987329553
sbsI358
g0
(g2518
g2
Ntp3603
Rp3604
(dp3605
g2522
g2721
sg2524
F0.968935064057628
sg2525
g2729
sg2527
I358
sg2528
F4.763667132801467
sbssS'node_order'
p3606
(lp3607
I324
aI321
aI348
aI164
aI328
aI152
aI271
aI216
aI179
aI356
aI294
aI280
aI83
aI344
aI289
aI143
aI167
aI358
aI283
aI206
aI318
aI161
aI312
aI231
aI290
aI241
aI230
aI287
aI145
aI305
aI326
aI237
aI108
aI244
aI208
aI299
aI88
aI170
aI296
aI131
aI286
aI135
aI291
aI146
aI322
aI188
aI187
aI260
aI342
aI238
aI112
aI329
aI245
aI215
aI281
aI116
aI205
aI227
aI138
aI350
aI109
aI217
aI298
aI133
aI181
aI243
aI267
aI249
aI353
aI189
aI320
aI115
aI248
aI313
aI107
aI185
aI355
aI302
aI357
aI253
aI85
aI93
aI140
aI149
aI268
aI337
aI335
aI178
aI130
aI233
aI207
aI292
aI352
aI270
aI266
aI103
aI277
aI169
aI69
aI186
aI340
aI223
aI137
aI200
aI176
aI211
aI82
aI90
aI346
aI263
aI172
aI247
aI163
aI175
aI177
aI97
aI180
aI242
aI104
aI334
aI155
aI309
aI153
aI295
aI158
aI218
aI89
aI166
aI288
aI222
aI156
aI345
aI317
aI121
aI160
aI102
aI96
aI123
aI182
aI99
aI72
aI111
aI262
aI301
aI325
aI150
aI148
aI251
aI209
aI274
aI86
aI139
aI331
aI351
aI129
aI74
aI327
aI229
aI159
aI70
aI234
aI132
aI142
aI343
aI84
aI81
aI87
aI250
aI76
aI94
aI162
aI124
aI147
aI323
aI203
aI100
aI225
aI315
aI278
aI300
aI114
aI310
aI198
aI339
aI254
aI127
aI293
aI332
aI192
aI285
aI184
aI199
aI173
aI168
aI258
aI210
aI306
aI297
aI347
aI354
aI330
aI252
aI276
aI66
aI171
aI196
aI117
aI311
aI226
aI307
aI194
aI338
aI122
aI154
aI228
aI110
aI144
aI92
aI246
aI232
aI269
aI264
aI71
aI119
aI157
aI141
aI73
aI303
aI77
aI202
aI259
aI257
aI256
aI220
aI221
aI165
aI239
aI80
aI308
aI105
aI273
aI151
aI319
aI190
aI183
aI282
aI136
aI224
aI128
aI240
aI134
aI265
aI67
aI333
aI78
aI255
aI113
aI336
aI341
aI126
aI106
aI79
aI349
aI235
aI95
aI212
aI197
aI316
aI118
aI204
aI314
aI304
aI101
aI191
aI98
aI236
aI201
aI174
aI279
aI120
aI125
aI75
aI284
aI193
aI219
aI275
aI214
aI213
aI272
aI195
aI261
aI91
aI68
asS'num_outputs'
p3608
I2
sS'fitness'
p3609
I400
sS'parent2_id'
p3610
I263355
sS'config'
p3611
g0
(cneat.config
Config
p3612
g2
Ntp3613
Rp3614
(dp3615
S'weight_stdev'
p3616
F5.0
sS'disjoint_coefficient'
p3617
F1.0
sS'prob_delete_node'
p3618
F0.125
sS'initial_connection'
p3619
S'unconnected'
p3620
sS'stagnation_type'
p3621
cneat.stagnation
DefaultStagnation
p3622
sS'weight_mutation_power'
p3623
F0.5
sS'excess_coefficient'
p3624
F1.0
sS'compatibility_threshold'
p3625
F3.0
sS'pop_size'
p3626
I150
sS'weight_coefficient'
p3627
F0.5
sS'feedforward'
p3628
I01
sS'prob_add_node'
p3629
F0.5
sS'genotype'
p3630
g1
sS'type_config'
p3631
(dp3632
S'DefaultStagnation'
p3633
(lp3634
(S'species_fitness_func'
p3635
S'mean'
p3636
tp3637
a(S'max_stagnation'
p3638
S'8'
p3639
tp3640
asS'DefaultReproduction'
p3641
(lp3642
(S'elitism'
p3643
S'2'
p3644
tp3645
a(S'survival_threshold'
p3646
S'0.2'
p3647
tp3648
assS'prob_mutate_activation'
p3649
F0.02
sS'conn_gene_type'
p3650
g10
sS'connection_fraction'
p3651
NsS'activation_functions'
p3652
(lp3653
g2721
asS'save_best'
p3654
I00
sS'response_mutation_power'
p3655
F0.5
sS'prob_add_conn'
p3656
F0.5
sS'checkpoint_time_interval'
p3657
NsS'checkpoint_gen_interval'
p3658
NsS'prob_mutate_bias'
p3659
F0.9
sS'reproduction_type'
p3660
cneat.reproduction
DefaultReproduction
p3661
sS'node_gene_type'
p3662
g2518
sS'output_nodes'
p3663
I2
sS'input_nodes'
p3664
I64
sS'prob_replace_weight'
p3665
F0.1
sS'registry'
p3666
(dp3667
S'DefaultStagnation'
p3668
g3622
sS'DefaultReproduction'
p3669
g3661
ssS'hidden_nodes'
p3670
I0
sS'report'
p3671
I00
sS'prob_mutate_response'
p3672
F0.8
sS'collect_statistics'
p3673
I01
sS'max_weight'
p3674
F50.0
sS'prob_toggle_link'
p3675
F0.01
sS'min_weight'
p3676
F-50.0
sS'max_fitness_threshold'
p3677
F100000.0
sS'bias_mutation_power'
p3678
F0.5
sS'prob_delete_conn'
p3679
F0.125
sS'reset_on_extinction'
p3680
I01
sS'prob_mutate_weight'
p3681
F0.8
sbsg2527
I265204
sb.